ARM GAS  /tmp/ccBRnU2t.s 			page 1


   1              		.syntax unified
   2              		.cpu cortex-m0
   3              		.fpu softvfp
   4              		.eabi_attribute 20, 1	@ Tag_ABI_FP_denormal
   5              		.eabi_attribute 21, 1	@ Tag_ABI_FP_exceptions
   6              		.eabi_attribute 23, 3	@ Tag_ABI_FP_number_model
   7              		.eabi_attribute 24, 1	@ Tag_ABI_align8_needed
   8              		.eabi_attribute 25, 1	@ Tag_ABI_align8_preserved
   9              		.eabi_attribute 26, 1	@ Tag_ABI_enum_size
  10              		.eabi_attribute 30, 6	@ Tag_ABI_optimization_goals
  11              		.eabi_attribute 34, 0	@ Tag_CPU_unaligned_access
  12              		.eabi_attribute 18, 4	@ Tag_ABI_PCS_wchar_t
  13              		.file	"core_cm0.c"
  14              	@ GNU C11 (GNU Tools for ARM Embedded Processors) version 5.2.1 20151202 (release) [ARM/embedded-5-
  15              	@	compiled by GNU C version 4.7.4, GMP version 4.3.2, MPFR version 2.4.2, MPC version 0.8.1
  16              	@ GGC heuristics: --param ggc-min-expand=100 --param ggc-min-heapsize=131072
  17              	@ options passed:  -I . -I ./src -I ./cmsis_boot -I ./cmsis_core
  18              	@ -imultilib armv6-m
  19              	@ -iprefix /usr/local/sbin/gcc-arm-none-eabi-5_2-2015q4/bin/../lib/gcc/arm-none-eabi/5.2.1/
  20              	@ -isysroot /usr/local/sbin/gcc-arm-none-eabi-5_2-2015q4/bin/../arm-none-eabi
  21              	@ -D__USES_INITFINI__ -D STM32F030 cmsis_core/core_cm0.c -mcpu=cortex-m0
  22              	@ -mthumb -auxbase-strip cmsis_core/core_cm0.o -g -gdwarf-2 -O0 -Wall
  23              	@ -fomit-frame-pointer -fdata-sections -ffunction-sections -fverbose-asm
  24              	@ options enabled:  -faggressive-loop-optimizations -fauto-inc-dec
  25              	@ -fchkp-check-incomplete-type -fchkp-check-read -fchkp-check-write
  26              	@ -fchkp-instrument-calls -fchkp-narrow-bounds -fchkp-optimize
  27              	@ -fchkp-store-bounds -fchkp-use-static-bounds
  28              	@ -fchkp-use-static-const-bounds -fchkp-use-wrappers -fcommon
  29              	@ -fdata-sections -fdelete-null-pointer-checks -fdwarf2-cfi-asm
  30              	@ -fearly-inlining -feliminate-unused-debug-types -ffunction-cse
  31              	@ -ffunction-sections -fgcse-lm -fgnu-runtime -fgnu-unique -fident
  32              	@ -finline-atomics -fira-hoist-pressure -fira-share-save-slots
  33              	@ -fira-share-spill-slots -fivopts -fkeep-static-consts
  34              	@ -fleading-underscore -flifetime-dse -flto-odr-type-merging -fmath-errno
  35              	@ -fmerge-debug-strings -fomit-frame-pointer -fpeephole
  36              	@ -fprefetch-loop-arrays -freg-struct-return
  37              	@ -fsched-critical-path-heuristic -fsched-dep-count-heuristic
  38              	@ -fsched-group-heuristic -fsched-interblock -fsched-last-insn-heuristic
  39              	@ -fsched-rank-heuristic -fsched-spec -fsched-spec-insn-heuristic
  40              	@ -fsched-stalled-insns-dep -fsemantic-interposition -fshow-column
  41              	@ -fsigned-zeros -fsplit-ivs-in-unroller -fstdarg-opt
  42              	@ -fstrict-volatile-bitfields -fsync-libcalls -ftrapping-math
  43              	@ -ftree-coalesce-vars -ftree-cselim -ftree-forwprop -ftree-loop-if-convert
  44              	@ -ftree-loop-im -ftree-loop-ivcanon -ftree-loop-optimize
  45              	@ -ftree-parallelize-loops= -ftree-phiprop -ftree-reassoc -ftree-scev-cprop
  46              	@ -funit-at-a-time -fverbose-asm -fzero-initialized-in-bss -mlittle-endian
  47              	@ -mpic-data-is-text-relative -msched-prolog -mthumb
  48              	@ -mvectorize-with-neon-quad
  49              	
  50              		.text
  51              	.Ltext0:
  52              		.cfi_sections	.debug_frame
  53              		.section	.text.__get_PSP,"ax",%progbits
  54              		.align	2
  55              		.global	__get_PSP
  56              		.code	16
  57              		.thumb_func
ARM GAS  /tmp/ccBRnU2t.s 			page 2


  58              		.type	__get_PSP, %function
  59              	__get_PSP:
  60              	.LFB0:
  61              		.file 1 "cmsis_core/core_cm0.c"
   1:cmsis_core/core_cm0.c **** /**************************************************************************//**
   2:cmsis_core/core_cm0.c ****  * @file     core_cm0.c
   3:cmsis_core/core_cm0.c ****  * @brief    CMSIS Cortex-M0 Core Peripheral Access Layer Source File
   4:cmsis_core/core_cm0.c ****  * @version  V1.30
   5:cmsis_core/core_cm0.c ****  * @date     30. October 2009
   6:cmsis_core/core_cm0.c ****  *
   7:cmsis_core/core_cm0.c ****  * @note
   8:cmsis_core/core_cm0.c ****  * Copyright (C) 2009 ARM Limited. All rights reserved.
   9:cmsis_core/core_cm0.c ****  *
  10:cmsis_core/core_cm0.c ****  * @par
  11:cmsis_core/core_cm0.c ****  * ARM Limited (ARM) is supplying this software for use with Cortex-M 
  12:cmsis_core/core_cm0.c ****  * processor based microcontrollers.  This file can be freely distributed 
  13:cmsis_core/core_cm0.c ****  * within development tools that are supporting such ARM based processors. 
  14:cmsis_core/core_cm0.c ****  *
  15:cmsis_core/core_cm0.c ****  * @par
  16:cmsis_core/core_cm0.c ****  * THIS SOFTWARE IS PROVIDED "AS IS".  NO WARRANTIES, WHETHER EXPRESS, IMPLIED
  17:cmsis_core/core_cm0.c ****  * OR STATUTORY, INCLUDING, BUT NOT LIMITED TO, IMPLIED WARRANTIES OF
  18:cmsis_core/core_cm0.c ****  * MERCHANTABILITY AND FITNESS FOR A PARTICULAR PURPOSE APPLY TO THIS SOFTWARE.
  19:cmsis_core/core_cm0.c ****  * ARM SHALL NOT, IN ANY CIRCUMSTANCES, BE LIABLE FOR SPECIAL, INCIDENTAL, OR
  20:cmsis_core/core_cm0.c ****  * CONSEQUENTIAL DAMAGES, FOR ANY REASON WHATSOEVER.
  21:cmsis_core/core_cm0.c ****  *
  22:cmsis_core/core_cm0.c ****  ******************************************************************************/
  23:cmsis_core/core_cm0.c **** 
  24:cmsis_core/core_cm0.c **** #include <stdint.h>
  25:cmsis_core/core_cm0.c **** 
  26:cmsis_core/core_cm0.c **** /* define compiler specific symbols */
  27:cmsis_core/core_cm0.c **** #if defined ( __CC_ARM   )
  28:cmsis_core/core_cm0.c ****   #define __ASM            __asm                                      /*!< asm keyword for ARM Comp
  29:cmsis_core/core_cm0.c ****   #define __INLINE         __inline                                   /*!< inline keyword for ARM C
  30:cmsis_core/core_cm0.c **** 
  31:cmsis_core/core_cm0.c **** #elif defined ( __ICCARM__ )
  32:cmsis_core/core_cm0.c ****   #define __ASM           __asm                                       /*!< asm keyword for IAR Comp
  33:cmsis_core/core_cm0.c ****   #define __INLINE        inline                                      /*!< inline keyword for IAR C
  34:cmsis_core/core_cm0.c **** 
  35:cmsis_core/core_cm0.c **** #elif defined   (  __GNUC__  )
  36:cmsis_core/core_cm0.c ****   #define __ASM            __asm                                      /*!< asm keyword for GNU Comp
  37:cmsis_core/core_cm0.c ****   #define __INLINE         inline                                     /*!< inline keyword for GNU C
  38:cmsis_core/core_cm0.c **** 
  39:cmsis_core/core_cm0.c **** #elif defined   (  __TASKING__  )
  40:cmsis_core/core_cm0.c ****   #define __ASM            __asm                                      /*!< asm keyword for TASKING 
  41:cmsis_core/core_cm0.c ****   #define __INLINE         inline                                     /*!< inline keyword for TASKI
  42:cmsis_core/core_cm0.c **** 
  43:cmsis_core/core_cm0.c **** #endif
  44:cmsis_core/core_cm0.c **** 
  45:cmsis_core/core_cm0.c **** 
  46:cmsis_core/core_cm0.c **** /* ###################  Compiler specific Intrinsics  ########################### */
  47:cmsis_core/core_cm0.c **** 
  48:cmsis_core/core_cm0.c **** #if defined ( __CC_ARM   ) /*------------------RealView Compiler -----------------*/
  49:cmsis_core/core_cm0.c **** /* ARM armcc specific functions */
  50:cmsis_core/core_cm0.c **** 
  51:cmsis_core/core_cm0.c **** /**
  52:cmsis_core/core_cm0.c ****  * @brief  Return the Process Stack Pointer
  53:cmsis_core/core_cm0.c ****  *
ARM GAS  /tmp/ccBRnU2t.s 			page 3


  54:cmsis_core/core_cm0.c ****  * @return ProcessStackPointer
  55:cmsis_core/core_cm0.c ****  *
  56:cmsis_core/core_cm0.c ****  * Return the actual process stack pointer
  57:cmsis_core/core_cm0.c ****  */
  58:cmsis_core/core_cm0.c **** __ASM uint32_t __get_PSP(void)
  59:cmsis_core/core_cm0.c **** {
  60:cmsis_core/core_cm0.c ****   mrs r0, psp
  61:cmsis_core/core_cm0.c ****   bx lr
  62:cmsis_core/core_cm0.c **** }
  63:cmsis_core/core_cm0.c **** 
  64:cmsis_core/core_cm0.c **** /**
  65:cmsis_core/core_cm0.c ****  * @brief  Set the Process Stack Pointer
  66:cmsis_core/core_cm0.c ****  *
  67:cmsis_core/core_cm0.c ****  * @param  topOfProcStack  Process Stack Pointer
  68:cmsis_core/core_cm0.c ****  *
  69:cmsis_core/core_cm0.c ****  * Assign the value ProcessStackPointer to the MSP 
  70:cmsis_core/core_cm0.c ****  * (process stack pointer) Cortex processor register
  71:cmsis_core/core_cm0.c ****  */
  72:cmsis_core/core_cm0.c **** __ASM void __set_PSP(uint32_t topOfProcStack)
  73:cmsis_core/core_cm0.c **** {
  74:cmsis_core/core_cm0.c ****   msr psp, r0
  75:cmsis_core/core_cm0.c ****   bx lr
  76:cmsis_core/core_cm0.c **** }
  77:cmsis_core/core_cm0.c **** 
  78:cmsis_core/core_cm0.c **** /**
  79:cmsis_core/core_cm0.c ****  * @brief  Return the Main Stack Pointer
  80:cmsis_core/core_cm0.c ****  *
  81:cmsis_core/core_cm0.c ****  * @return Main Stack Pointer
  82:cmsis_core/core_cm0.c ****  *
  83:cmsis_core/core_cm0.c ****  * Return the current value of the MSP (main stack pointer)
  84:cmsis_core/core_cm0.c ****  * Cortex processor register
  85:cmsis_core/core_cm0.c ****  */
  86:cmsis_core/core_cm0.c **** __ASM uint32_t __get_MSP(void)
  87:cmsis_core/core_cm0.c **** {
  88:cmsis_core/core_cm0.c ****   mrs r0, msp
  89:cmsis_core/core_cm0.c ****   bx lr
  90:cmsis_core/core_cm0.c **** }
  91:cmsis_core/core_cm0.c **** 
  92:cmsis_core/core_cm0.c **** /**
  93:cmsis_core/core_cm0.c ****  * @brief  Set the Main Stack Pointer
  94:cmsis_core/core_cm0.c ****  *
  95:cmsis_core/core_cm0.c ****  * @param  topOfMainStack  Main Stack Pointer
  96:cmsis_core/core_cm0.c ****  *
  97:cmsis_core/core_cm0.c ****  * Assign the value mainStackPointer to the MSP 
  98:cmsis_core/core_cm0.c ****  * (main stack pointer) Cortex processor register
  99:cmsis_core/core_cm0.c ****  */
 100:cmsis_core/core_cm0.c **** __ASM void __set_MSP(uint32_t mainStackPointer)
 101:cmsis_core/core_cm0.c **** {
 102:cmsis_core/core_cm0.c ****   msr msp, r0
 103:cmsis_core/core_cm0.c ****   bx lr
 104:cmsis_core/core_cm0.c **** }
 105:cmsis_core/core_cm0.c **** 
 106:cmsis_core/core_cm0.c **** /**
 107:cmsis_core/core_cm0.c ****  * @brief  Reverse byte order in unsigned short value
 108:cmsis_core/core_cm0.c ****  *
 109:cmsis_core/core_cm0.c ****  * @param   value  value to reverse
 110:cmsis_core/core_cm0.c ****  * @return         reversed value
ARM GAS  /tmp/ccBRnU2t.s 			page 4


 111:cmsis_core/core_cm0.c ****  *
 112:cmsis_core/core_cm0.c ****  * Reverse byte order in unsigned short value
 113:cmsis_core/core_cm0.c ****  */
 114:cmsis_core/core_cm0.c **** __ASM uint32_t __REV16(uint16_t value)
 115:cmsis_core/core_cm0.c **** {
 116:cmsis_core/core_cm0.c ****   rev16 r0, r0
 117:cmsis_core/core_cm0.c ****   bx lr
 118:cmsis_core/core_cm0.c **** }
 119:cmsis_core/core_cm0.c **** 
 120:cmsis_core/core_cm0.c **** /**
 121:cmsis_core/core_cm0.c ****  * @brief  Reverse byte order in signed short value with sign extension to integer
 122:cmsis_core/core_cm0.c ****  *
 123:cmsis_core/core_cm0.c ****  * @param   value  value to reverse
 124:cmsis_core/core_cm0.c ****  * @return         reversed value
 125:cmsis_core/core_cm0.c ****  *
 126:cmsis_core/core_cm0.c ****  * Reverse byte order in signed short value with sign extension to integer
 127:cmsis_core/core_cm0.c ****  */
 128:cmsis_core/core_cm0.c **** __ASM int32_t __REVSH(int16_t value)
 129:cmsis_core/core_cm0.c **** {
 130:cmsis_core/core_cm0.c ****   revsh r0, r0
 131:cmsis_core/core_cm0.c ****   bx lr
 132:cmsis_core/core_cm0.c **** }
 133:cmsis_core/core_cm0.c **** 
 134:cmsis_core/core_cm0.c **** 
 135:cmsis_core/core_cm0.c **** #if (__ARMCC_VERSION < 400000)
 136:cmsis_core/core_cm0.c **** 
 137:cmsis_core/core_cm0.c **** 
 138:cmsis_core/core_cm0.c **** /**
 139:cmsis_core/core_cm0.c ****  * @brief  Return the Priority Mask value
 140:cmsis_core/core_cm0.c ****  *
 141:cmsis_core/core_cm0.c ****  * @return PriMask
 142:cmsis_core/core_cm0.c ****  *
 143:cmsis_core/core_cm0.c ****  * Return state of the priority mask bit from the priority mask register
 144:cmsis_core/core_cm0.c ****  */
 145:cmsis_core/core_cm0.c **** __ASM uint32_t __get_PRIMASK(void)
 146:cmsis_core/core_cm0.c **** {
 147:cmsis_core/core_cm0.c ****   mrs r0, primask
 148:cmsis_core/core_cm0.c ****   bx lr
 149:cmsis_core/core_cm0.c **** }
 150:cmsis_core/core_cm0.c **** 
 151:cmsis_core/core_cm0.c **** /**
 152:cmsis_core/core_cm0.c ****  * @brief  Set the Priority Mask value
 153:cmsis_core/core_cm0.c ****  *
 154:cmsis_core/core_cm0.c ****  * @param  priMask  PriMask
 155:cmsis_core/core_cm0.c ****  *
 156:cmsis_core/core_cm0.c ****  * Set the priority mask bit in the priority mask register
 157:cmsis_core/core_cm0.c ****  */
 158:cmsis_core/core_cm0.c **** __ASM void __set_PRIMASK(uint32_t priMask)
 159:cmsis_core/core_cm0.c **** {
 160:cmsis_core/core_cm0.c ****   msr primask, r0
 161:cmsis_core/core_cm0.c ****   bx lr
 162:cmsis_core/core_cm0.c **** }
 163:cmsis_core/core_cm0.c **** 
 164:cmsis_core/core_cm0.c **** /**
 165:cmsis_core/core_cm0.c ****  * @brief  Return the Control Register value
 166:cmsis_core/core_cm0.c ****  * 
 167:cmsis_core/core_cm0.c ****  * @return Control value
ARM GAS  /tmp/ccBRnU2t.s 			page 5


 168:cmsis_core/core_cm0.c ****  *
 169:cmsis_core/core_cm0.c ****  * Return the content of the control register
 170:cmsis_core/core_cm0.c ****  */
 171:cmsis_core/core_cm0.c **** __ASM uint32_t __get_CONTROL(void)
 172:cmsis_core/core_cm0.c **** {
 173:cmsis_core/core_cm0.c ****   mrs r0, control
 174:cmsis_core/core_cm0.c ****   bx lr
 175:cmsis_core/core_cm0.c **** }
 176:cmsis_core/core_cm0.c **** 
 177:cmsis_core/core_cm0.c **** /**
 178:cmsis_core/core_cm0.c ****  * @brief  Set the Control Register value
 179:cmsis_core/core_cm0.c ****  *
 180:cmsis_core/core_cm0.c ****  * @param  control  Control value
 181:cmsis_core/core_cm0.c ****  *
 182:cmsis_core/core_cm0.c ****  * Set the control register
 183:cmsis_core/core_cm0.c ****  */
 184:cmsis_core/core_cm0.c **** __ASM void __set_CONTROL(uint32_t control)
 185:cmsis_core/core_cm0.c **** {
 186:cmsis_core/core_cm0.c ****   msr control, r0
 187:cmsis_core/core_cm0.c ****   bx lr
 188:cmsis_core/core_cm0.c **** }
 189:cmsis_core/core_cm0.c **** 
 190:cmsis_core/core_cm0.c **** #endif /* __ARMCC_VERSION  */ 
 191:cmsis_core/core_cm0.c **** 
 192:cmsis_core/core_cm0.c **** 
 193:cmsis_core/core_cm0.c **** 
 194:cmsis_core/core_cm0.c **** #elif (defined (__ICCARM__)) /*------------------ ICC Compiler -------------------*/
 195:cmsis_core/core_cm0.c **** /* IAR iccarm specific functions */
 196:cmsis_core/core_cm0.c **** #pragma diag_suppress=Pe940
 197:cmsis_core/core_cm0.c **** 
 198:cmsis_core/core_cm0.c **** /**
 199:cmsis_core/core_cm0.c ****  * @brief  Return the Process Stack Pointer
 200:cmsis_core/core_cm0.c ****  *
 201:cmsis_core/core_cm0.c ****  * @return ProcessStackPointer
 202:cmsis_core/core_cm0.c ****  *
 203:cmsis_core/core_cm0.c ****  * Return the actual process stack pointer
 204:cmsis_core/core_cm0.c ****  */
 205:cmsis_core/core_cm0.c **** uint32_t __get_PSP(void)
 206:cmsis_core/core_cm0.c **** {
 207:cmsis_core/core_cm0.c ****   __ASM("mrs r0, psp");
 208:cmsis_core/core_cm0.c ****   __ASM("bx lr");
 209:cmsis_core/core_cm0.c **** }
 210:cmsis_core/core_cm0.c **** 
 211:cmsis_core/core_cm0.c **** /**
 212:cmsis_core/core_cm0.c ****  * @brief  Set the Process Stack Pointer
 213:cmsis_core/core_cm0.c ****  *
 214:cmsis_core/core_cm0.c ****  * @param  topOfProcStack  Process Stack Pointer
 215:cmsis_core/core_cm0.c ****  *
 216:cmsis_core/core_cm0.c ****  * Assign the value ProcessStackPointer to the MSP 
 217:cmsis_core/core_cm0.c ****  * (process stack pointer) Cortex processor register
 218:cmsis_core/core_cm0.c ****  */
 219:cmsis_core/core_cm0.c **** void __set_PSP(uint32_t topOfProcStack)
 220:cmsis_core/core_cm0.c **** {
 221:cmsis_core/core_cm0.c ****   __ASM("msr psp, r0");
 222:cmsis_core/core_cm0.c ****   __ASM("bx lr");
 223:cmsis_core/core_cm0.c **** }
 224:cmsis_core/core_cm0.c **** 
ARM GAS  /tmp/ccBRnU2t.s 			page 6


 225:cmsis_core/core_cm0.c **** /**
 226:cmsis_core/core_cm0.c ****  * @brief  Return the Main Stack Pointer
 227:cmsis_core/core_cm0.c ****  *
 228:cmsis_core/core_cm0.c ****  * @return Main Stack Pointer
 229:cmsis_core/core_cm0.c ****  *
 230:cmsis_core/core_cm0.c ****  * Return the current value of the MSP (main stack pointer)
 231:cmsis_core/core_cm0.c ****  * Cortex processor register
 232:cmsis_core/core_cm0.c ****  */
 233:cmsis_core/core_cm0.c **** uint32_t __get_MSP(void)
 234:cmsis_core/core_cm0.c **** {
 235:cmsis_core/core_cm0.c ****   __ASM("mrs r0, msp");
 236:cmsis_core/core_cm0.c ****   __ASM("bx lr");
 237:cmsis_core/core_cm0.c **** }
 238:cmsis_core/core_cm0.c **** 
 239:cmsis_core/core_cm0.c **** /**
 240:cmsis_core/core_cm0.c ****  * @brief  Set the Main Stack Pointer
 241:cmsis_core/core_cm0.c ****  *
 242:cmsis_core/core_cm0.c ****  * @param  topOfMainStack  Main Stack Pointer
 243:cmsis_core/core_cm0.c ****  *
 244:cmsis_core/core_cm0.c ****  * Assign the value mainStackPointer to the MSP 
 245:cmsis_core/core_cm0.c ****  * (main stack pointer) Cortex processor register
 246:cmsis_core/core_cm0.c ****  */
 247:cmsis_core/core_cm0.c **** void __set_MSP(uint32_t topOfMainStack)
 248:cmsis_core/core_cm0.c **** {
 249:cmsis_core/core_cm0.c ****   __ASM("msr msp, r0");
 250:cmsis_core/core_cm0.c ****   __ASM("bx lr");
 251:cmsis_core/core_cm0.c **** }
 252:cmsis_core/core_cm0.c **** 
 253:cmsis_core/core_cm0.c **** /**
 254:cmsis_core/core_cm0.c ****  * @brief  Reverse byte order in unsigned short value
 255:cmsis_core/core_cm0.c ****  *
 256:cmsis_core/core_cm0.c ****  * @param  value  value to reverse
 257:cmsis_core/core_cm0.c ****  * @return        reversed value
 258:cmsis_core/core_cm0.c ****  *
 259:cmsis_core/core_cm0.c ****  * Reverse byte order in unsigned short value
 260:cmsis_core/core_cm0.c ****  */
 261:cmsis_core/core_cm0.c **** uint32_t __REV16(uint16_t value)
 262:cmsis_core/core_cm0.c **** {
 263:cmsis_core/core_cm0.c ****   __ASM("rev16 r0, r0");
 264:cmsis_core/core_cm0.c ****   __ASM("bx lr");
 265:cmsis_core/core_cm0.c **** }
 266:cmsis_core/core_cm0.c **** 
 267:cmsis_core/core_cm0.c **** 
 268:cmsis_core/core_cm0.c **** #pragma diag_default=Pe940
 269:cmsis_core/core_cm0.c **** 
 270:cmsis_core/core_cm0.c **** 
 271:cmsis_core/core_cm0.c **** #elif (defined (__GNUC__)) /*------------------ GNU Compiler ---------------------*/
 272:cmsis_core/core_cm0.c **** /* GNU gcc specific functions */
 273:cmsis_core/core_cm0.c **** 
 274:cmsis_core/core_cm0.c **** /**
 275:cmsis_core/core_cm0.c ****  * @brief  Return the Process Stack Pointer
 276:cmsis_core/core_cm0.c ****  *
 277:cmsis_core/core_cm0.c ****  * @return ProcessStackPointer
 278:cmsis_core/core_cm0.c ****  *
 279:cmsis_core/core_cm0.c ****  * Return the actual process stack pointer
 280:cmsis_core/core_cm0.c ****  */
 281:cmsis_core/core_cm0.c **** uint32_t __get_PSP(void) __attribute__( ( naked ) );
ARM GAS  /tmp/ccBRnU2t.s 			page 7


 282:cmsis_core/core_cm0.c **** uint32_t __get_PSP(void)
 283:cmsis_core/core_cm0.c **** {
  62              		.loc 1 283 0
  63              		.cfi_startproc
 284:cmsis_core/core_cm0.c ****   uint32_t result=0;
 285:cmsis_core/core_cm0.c **** 
 286:cmsis_core/core_cm0.c ****   __ASM volatile ("MRS %0, psp\n\t" 
  64              		.loc 1 286 0
  65              		.syntax divided
  66              	@ 286 "cmsis_core/core_cm0.c" 1
  67 0000 EFF30983 		MRS r3, psp	@ result
  68 0004 181C     		MOV r0, r3 	@ result
  69 0006 7047     		BX  lr     
  70              		
  71              	@ 0 "" 2
  72              		.thumb
  73              		.syntax unified
  74 0008 1C00     		movs	r4, r3	@ result, result
 287:cmsis_core/core_cm0.c ****                   "MOV r0, %0 \n\t"
 288:cmsis_core/core_cm0.c ****                   "BX  lr     \n\t"  : "=r" (result) );
 289:cmsis_core/core_cm0.c ****   return(result);
  75              		.loc 1 289 0
  76 000a 2300     		movs	r3, r4	@ D.4285, result
 290:cmsis_core/core_cm0.c **** }
  77              		.loc 1 290 0
  78 000c 1800     		movs	r0, r3	@, <retval>
  79              		.cfi_endproc
  80              	.LFE0:
  81              		.size	__get_PSP, .-__get_PSP
  82 000e C046     		.section	.text.__set_PSP,"ax",%progbits
  83              		.align	2
  84              		.global	__set_PSP
  85              		.code	16
  86              		.thumb_func
  87              		.type	__set_PSP, %function
  88              	__set_PSP:
  89              	.LFB1:
 291:cmsis_core/core_cm0.c **** 
 292:cmsis_core/core_cm0.c **** /**
 293:cmsis_core/core_cm0.c ****  * @brief  Set the Process Stack Pointer
 294:cmsis_core/core_cm0.c ****  *
 295:cmsis_core/core_cm0.c ****  * @param  topOfProcStack  Process Stack Pointer
 296:cmsis_core/core_cm0.c ****  *
 297:cmsis_core/core_cm0.c ****  * Assign the value ProcessStackPointer to the MSP 
 298:cmsis_core/core_cm0.c ****  * (process stack pointer) Cortex processor register
 299:cmsis_core/core_cm0.c ****  */
 300:cmsis_core/core_cm0.c **** void __set_PSP(uint32_t topOfProcStack) __attribute__( ( naked ) );
 301:cmsis_core/core_cm0.c **** void __set_PSP(uint32_t topOfProcStack)
 302:cmsis_core/core_cm0.c **** {
  90              		.loc 1 302 0
  91              		.cfi_startproc
  92 0000 0300     		movs	r3, r0	@ topOfProcStack, topOfProcStack
 303:cmsis_core/core_cm0.c ****   __ASM volatile ("MSR psp, %0\n\t"
  93              		.loc 1 303 0
  94              		.syntax divided
  95              	@ 303 "cmsis_core/core_cm0.c" 1
  96 0002 83F30988 		MSR psp, r3	@ topOfProcStack
ARM GAS  /tmp/ccBRnU2t.s 			page 8


  97 0006 7047     		BX  lr     
  98              		
  99              	@ 0 "" 2
 304:cmsis_core/core_cm0.c ****                   "BX  lr     \n\t" : : "r" (topOfProcStack) );
 305:cmsis_core/core_cm0.c **** }
 100              		.loc 1 305 0
 101              		.thumb
 102              		.syntax unified
 103 0008 C046     		nop
 104              		.cfi_endproc
 105              	.LFE1:
 106              		.size	__set_PSP, .-__set_PSP
 107              		.section	.text.__get_MSP,"ax",%progbits
 108              		.align	2
 109              		.global	__get_MSP
 110              		.code	16
 111              		.thumb_func
 112              		.type	__get_MSP, %function
 113              	__get_MSP:
 114              	.LFB2:
 306:cmsis_core/core_cm0.c **** 
 307:cmsis_core/core_cm0.c **** /**
 308:cmsis_core/core_cm0.c ****  * @brief  Return the Main Stack Pointer
 309:cmsis_core/core_cm0.c ****  *
 310:cmsis_core/core_cm0.c ****  * @return Main Stack Pointer
 311:cmsis_core/core_cm0.c ****  *
 312:cmsis_core/core_cm0.c ****  * Return the current value of the MSP (main stack pointer)
 313:cmsis_core/core_cm0.c ****  * Cortex processor register
 314:cmsis_core/core_cm0.c ****  */
 315:cmsis_core/core_cm0.c **** uint32_t __get_MSP(void) __attribute__( ( naked ) );
 316:cmsis_core/core_cm0.c **** uint32_t __get_MSP(void)
 317:cmsis_core/core_cm0.c **** {
 115              		.loc 1 317 0
 116              		.cfi_startproc
 318:cmsis_core/core_cm0.c ****   uint32_t result=0;
 319:cmsis_core/core_cm0.c **** 
 320:cmsis_core/core_cm0.c ****   __ASM volatile ("MRS %0, msp\n\t" 
 117              		.loc 1 320 0
 118              		.syntax divided
 119              	@ 320 "cmsis_core/core_cm0.c" 1
 120 0000 EFF30883 		MRS r3, msp	@ result
 121 0004 181C     		MOV r0, r3 	@ result
 122 0006 7047     		BX  lr     
 123              		
 124              	@ 0 "" 2
 125              		.thumb
 126              		.syntax unified
 127 0008 1C00     		movs	r4, r3	@ result, result
 321:cmsis_core/core_cm0.c ****                   "MOV r0, %0 \n\t"
 322:cmsis_core/core_cm0.c ****                   "BX  lr     \n\t"  : "=r" (result) );
 323:cmsis_core/core_cm0.c ****   return(result);
 128              		.loc 1 323 0
 129 000a 2300     		movs	r3, r4	@ D.4287, result
 324:cmsis_core/core_cm0.c **** }
 130              		.loc 1 324 0
 131 000c 1800     		movs	r0, r3	@, <retval>
 132              		.cfi_endproc
ARM GAS  /tmp/ccBRnU2t.s 			page 9


 133              	.LFE2:
 134              		.size	__get_MSP, .-__get_MSP
 135 000e C046     		.section	.text.__set_MSP,"ax",%progbits
 136              		.align	2
 137              		.global	__set_MSP
 138              		.code	16
 139              		.thumb_func
 140              		.type	__set_MSP, %function
 141              	__set_MSP:
 142              	.LFB3:
 325:cmsis_core/core_cm0.c **** 
 326:cmsis_core/core_cm0.c **** /**
 327:cmsis_core/core_cm0.c ****  * @brief  Set the Main Stack Pointer
 328:cmsis_core/core_cm0.c ****  *
 329:cmsis_core/core_cm0.c ****  * @param  topOfMainStack  Main Stack Pointer
 330:cmsis_core/core_cm0.c ****  *
 331:cmsis_core/core_cm0.c ****  * Assign the value mainStackPointer to the MSP 
 332:cmsis_core/core_cm0.c ****  * (main stack pointer) Cortex processor register
 333:cmsis_core/core_cm0.c ****  */
 334:cmsis_core/core_cm0.c **** void __set_MSP(uint32_t topOfMainStack) __attribute__( ( naked ) );
 335:cmsis_core/core_cm0.c **** void __set_MSP(uint32_t topOfMainStack)
 336:cmsis_core/core_cm0.c **** {
 143              		.loc 1 336 0
 144              		.cfi_startproc
 145 0000 0300     		movs	r3, r0	@ topOfMainStack, topOfMainStack
 337:cmsis_core/core_cm0.c ****   __ASM volatile ("MSR msp, %0\n\t"
 146              		.loc 1 337 0
 147              		.syntax divided
 148              	@ 337 "cmsis_core/core_cm0.c" 1
 149 0002 83F30888 		MSR msp, r3	@ topOfMainStack
 150 0006 7047     		BX  lr     
 151              		
 152              	@ 0 "" 2
 338:cmsis_core/core_cm0.c ****                   "BX  lr     \n\t" : : "r" (topOfMainStack) );
 339:cmsis_core/core_cm0.c **** }
 153              		.loc 1 339 0
 154              		.thumb
 155              		.syntax unified
 156 0008 C046     		nop
 157              		.cfi_endproc
 158              	.LFE3:
 159              		.size	__set_MSP, .-__set_MSP
 160              		.section	.text.__get_PRIMASK,"ax",%progbits
 161              		.align	2
 162              		.global	__get_PRIMASK
 163              		.code	16
 164              		.thumb_func
 165              		.type	__get_PRIMASK, %function
 166              	__get_PRIMASK:
 167              	.LFB4:
 340:cmsis_core/core_cm0.c **** 
 341:cmsis_core/core_cm0.c **** 
 342:cmsis_core/core_cm0.c **** /**
 343:cmsis_core/core_cm0.c ****  * @brief  Return the Priority Mask value
 344:cmsis_core/core_cm0.c ****  *
 345:cmsis_core/core_cm0.c ****  * @return PriMask
 346:cmsis_core/core_cm0.c ****  *
ARM GAS  /tmp/ccBRnU2t.s 			page 10


 347:cmsis_core/core_cm0.c ****  * Return state of the priority mask bit from the priority mask register
 348:cmsis_core/core_cm0.c ****  */
 349:cmsis_core/core_cm0.c **** uint32_t __get_PRIMASK(void)
 350:cmsis_core/core_cm0.c **** {
 168              		.loc 1 350 0
 169              		.cfi_startproc
 170 0000 82B0     		sub	sp, sp, #8	@,,
 171              	.LCFI0:
 172              		.cfi_def_cfa_offset 8
 351:cmsis_core/core_cm0.c ****   uint32_t result=0;
 173              		.loc 1 351 0
 174 0002 0023     		movs	r3, #0	@ tmp112,
 175 0004 0193     		str	r3, [sp, #4]	@ tmp112, result
 352:cmsis_core/core_cm0.c **** 
 353:cmsis_core/core_cm0.c ****   __ASM volatile ("MRS %0, primask" : "=r" (result) );
 176              		.loc 1 353 0
 177              		.syntax divided
 178              	@ 353 "cmsis_core/core_cm0.c" 1
 179 0006 EFF31083 		MRS r3, primask	@ result
 180              	@ 0 "" 2
 181              		.thumb
 182              		.syntax unified
 183 000a 0193     		str	r3, [sp, #4]	@ result, result
 354:cmsis_core/core_cm0.c ****   return(result);
 184              		.loc 1 354 0
 185 000c 019B     		ldr	r3, [sp, #4]	@ D.4289, result
 355:cmsis_core/core_cm0.c **** }
 186              		.loc 1 355 0
 187 000e 1800     		movs	r0, r3	@, <retval>
 188 0010 02B0     		add	sp, sp, #8	@,,
 189              		@ sp needed	@
 190 0012 7047     		bx	lr
 191              		.cfi_endproc
 192              	.LFE4:
 193              		.size	__get_PRIMASK, .-__get_PRIMASK
 194              		.section	.text.__set_PRIMASK,"ax",%progbits
 195              		.align	2
 196              		.global	__set_PRIMASK
 197              		.code	16
 198              		.thumb_func
 199              		.type	__set_PRIMASK, %function
 200              	__set_PRIMASK:
 201              	.LFB5:
 356:cmsis_core/core_cm0.c **** 
 357:cmsis_core/core_cm0.c **** /**
 358:cmsis_core/core_cm0.c ****  * @brief  Set the Priority Mask value
 359:cmsis_core/core_cm0.c ****  *
 360:cmsis_core/core_cm0.c ****  * @param  priMask  PriMask
 361:cmsis_core/core_cm0.c ****  *
 362:cmsis_core/core_cm0.c ****  * Set the priority mask bit in the priority mask register
 363:cmsis_core/core_cm0.c ****  */
 364:cmsis_core/core_cm0.c **** void __set_PRIMASK(uint32_t priMask)
 365:cmsis_core/core_cm0.c **** {
 202              		.loc 1 365 0
 203              		.cfi_startproc
 204 0000 82B0     		sub	sp, sp, #8	@,,
 205              	.LCFI1:
ARM GAS  /tmp/ccBRnU2t.s 			page 11


 206              		.cfi_def_cfa_offset 8
 207 0002 0190     		str	r0, [sp, #4]	@ priMask, priMask
 366:cmsis_core/core_cm0.c ****   __ASM volatile ("MSR primask, %0" : : "r" (priMask) );
 208              		.loc 1 366 0
 209 0004 019B     		ldr	r3, [sp, #4]	@ tmp110, priMask
 210              		.syntax divided
 211              	@ 366 "cmsis_core/core_cm0.c" 1
 212 0006 83F31088 		MSR primask, r3	@ tmp110
 213              	@ 0 "" 2
 367:cmsis_core/core_cm0.c **** }
 214              		.loc 1 367 0
 215              		.thumb
 216              		.syntax unified
 217 000a C046     		nop
 218 000c 02B0     		add	sp, sp, #8	@,,
 219              		@ sp needed	@
 220 000e 7047     		bx	lr
 221              		.cfi_endproc
 222              	.LFE5:
 223              		.size	__set_PRIMASK, .-__set_PRIMASK
 224              		.section	.text.__get_CONTROL,"ax",%progbits
 225              		.align	2
 226              		.global	__get_CONTROL
 227              		.code	16
 228              		.thumb_func
 229              		.type	__get_CONTROL, %function
 230              	__get_CONTROL:
 231              	.LFB6:
 368:cmsis_core/core_cm0.c **** 
 369:cmsis_core/core_cm0.c **** /**
 370:cmsis_core/core_cm0.c ****  * @brief  Return the Control Register value
 371:cmsis_core/core_cm0.c **** * 
 372:cmsis_core/core_cm0.c **** *  @return Control value
 373:cmsis_core/core_cm0.c ****  *
 374:cmsis_core/core_cm0.c ****  * Return the content of the control register
 375:cmsis_core/core_cm0.c ****  */
 376:cmsis_core/core_cm0.c **** uint32_t __get_CONTROL(void)
 377:cmsis_core/core_cm0.c **** {
 232              		.loc 1 377 0
 233              		.cfi_startproc
 234 0000 82B0     		sub	sp, sp, #8	@,,
 235              	.LCFI2:
 236              		.cfi_def_cfa_offset 8
 378:cmsis_core/core_cm0.c ****   uint32_t result=0;
 237              		.loc 1 378 0
 238 0002 0023     		movs	r3, #0	@ tmp112,
 239 0004 0193     		str	r3, [sp, #4]	@ tmp112, result
 379:cmsis_core/core_cm0.c **** 
 380:cmsis_core/core_cm0.c ****   __ASM volatile ("MRS %0, control" : "=r" (result) );
 240              		.loc 1 380 0
 241              		.syntax divided
 242              	@ 380 "cmsis_core/core_cm0.c" 1
 243 0006 EFF31483 		MRS r3, control	@ result
 244              	@ 0 "" 2
 245              		.thumb
 246              		.syntax unified
 247 000a 0193     		str	r3, [sp, #4]	@ result, result
ARM GAS  /tmp/ccBRnU2t.s 			page 12


 381:cmsis_core/core_cm0.c ****   return(result);
 248              		.loc 1 381 0
 249 000c 019B     		ldr	r3, [sp, #4]	@ D.4291, result
 382:cmsis_core/core_cm0.c **** }
 250              		.loc 1 382 0
 251 000e 1800     		movs	r0, r3	@, <retval>
 252 0010 02B0     		add	sp, sp, #8	@,,
 253              		@ sp needed	@
 254 0012 7047     		bx	lr
 255              		.cfi_endproc
 256              	.LFE6:
 257              		.size	__get_CONTROL, .-__get_CONTROL
 258              		.section	.text.__set_CONTROL,"ax",%progbits
 259              		.align	2
 260              		.global	__set_CONTROL
 261              		.code	16
 262              		.thumb_func
 263              		.type	__set_CONTROL, %function
 264              	__set_CONTROL:
 265              	.LFB7:
 383:cmsis_core/core_cm0.c **** 
 384:cmsis_core/core_cm0.c **** /**
 385:cmsis_core/core_cm0.c ****  * @brief  Set the Control Register value
 386:cmsis_core/core_cm0.c ****  *
 387:cmsis_core/core_cm0.c ****  * @param  control  Control value
 388:cmsis_core/core_cm0.c ****  *
 389:cmsis_core/core_cm0.c ****  * Set the control register
 390:cmsis_core/core_cm0.c ****  */
 391:cmsis_core/core_cm0.c **** void __set_CONTROL(uint32_t control)
 392:cmsis_core/core_cm0.c **** {
 266              		.loc 1 392 0
 267              		.cfi_startproc
 268 0000 82B0     		sub	sp, sp, #8	@,,
 269              	.LCFI3:
 270              		.cfi_def_cfa_offset 8
 271 0002 0190     		str	r0, [sp, #4]	@ control, control
 393:cmsis_core/core_cm0.c ****   __ASM volatile ("MSR control, %0" : : "r" (control) );
 272              		.loc 1 393 0
 273 0004 019B     		ldr	r3, [sp, #4]	@ tmp110, control
 274              		.syntax divided
 275              	@ 393 "cmsis_core/core_cm0.c" 1
 276 0006 83F31488 		MSR control, r3	@ tmp110
 277              	@ 0 "" 2
 394:cmsis_core/core_cm0.c **** }
 278              		.loc 1 394 0
 279              		.thumb
 280              		.syntax unified
 281 000a C046     		nop
 282 000c 02B0     		add	sp, sp, #8	@,,
 283              		@ sp needed	@
 284 000e 7047     		bx	lr
 285              		.cfi_endproc
 286              	.LFE7:
 287              		.size	__set_CONTROL, .-__set_CONTROL
 288              		.section	.text.__REV,"ax",%progbits
 289              		.align	2
 290              		.global	__REV
ARM GAS  /tmp/ccBRnU2t.s 			page 13


 291              		.code	16
 292              		.thumb_func
 293              		.type	__REV, %function
 294              	__REV:
 295              	.LFB8:
 395:cmsis_core/core_cm0.c **** 
 396:cmsis_core/core_cm0.c **** 
 397:cmsis_core/core_cm0.c **** /**
 398:cmsis_core/core_cm0.c ****  * @brief  Reverse byte order in integer value
 399:cmsis_core/core_cm0.c ****  *
 400:cmsis_core/core_cm0.c ****  * @param  value  value to reverse
 401:cmsis_core/core_cm0.c ****  * @return        reversed value
 402:cmsis_core/core_cm0.c ****  *
 403:cmsis_core/core_cm0.c ****  * Reverse byte order in integer value
 404:cmsis_core/core_cm0.c ****  */
 405:cmsis_core/core_cm0.c **** uint32_t __REV(uint32_t value)
 406:cmsis_core/core_cm0.c **** {
 296              		.loc 1 406 0
 297              		.cfi_startproc
 298 0000 84B0     		sub	sp, sp, #16	@,,
 299              	.LCFI4:
 300              		.cfi_def_cfa_offset 16
 301 0002 0190     		str	r0, [sp, #4]	@ value, value
 407:cmsis_core/core_cm0.c ****   uint32_t result=0;
 302              		.loc 1 407 0
 303 0004 0023     		movs	r3, #0	@ tmp112,
 304 0006 0393     		str	r3, [sp, #12]	@ tmp112, result
 408:cmsis_core/core_cm0.c ****   
 409:cmsis_core/core_cm0.c ****   __ASM volatile ("rev %0, %1" : "=r" (result) : "r" (value) );
 305              		.loc 1 409 0
 306 0008 019B     		ldr	r3, [sp, #4]	@ tmp114, value
 307              		.syntax divided
 308              	@ 409 "cmsis_core/core_cm0.c" 1
 309 000a 1BBA     		rev r3, r3	@ result, tmp114
 310              	@ 0 "" 2
 311              		.thumb
 312              		.syntax unified
 313 000c 0393     		str	r3, [sp, #12]	@ result, result
 410:cmsis_core/core_cm0.c ****   return(result);
 314              		.loc 1 410 0
 315 000e 039B     		ldr	r3, [sp, #12]	@ D.4293, result
 411:cmsis_core/core_cm0.c **** }
 316              		.loc 1 411 0
 317 0010 1800     		movs	r0, r3	@, <retval>
 318 0012 04B0     		add	sp, sp, #16	@,,
 319              		@ sp needed	@
 320 0014 7047     		bx	lr
 321              		.cfi_endproc
 322              	.LFE8:
 323              		.size	__REV, .-__REV
 324 0016 C046     		.section	.text.__REV16,"ax",%progbits
 325              		.align	2
 326              		.global	__REV16
 327              		.code	16
 328              		.thumb_func
 329              		.type	__REV16, %function
 330              	__REV16:
ARM GAS  /tmp/ccBRnU2t.s 			page 14


 331              	.LFB9:
 412:cmsis_core/core_cm0.c **** 
 413:cmsis_core/core_cm0.c **** /**
 414:cmsis_core/core_cm0.c ****  * @brief  Reverse byte order in unsigned short value
 415:cmsis_core/core_cm0.c ****  *
 416:cmsis_core/core_cm0.c ****  * @param  value  value to reverse
 417:cmsis_core/core_cm0.c ****  * @return        reversed value
 418:cmsis_core/core_cm0.c ****  *
 419:cmsis_core/core_cm0.c ****  * Reverse byte order in unsigned short value
 420:cmsis_core/core_cm0.c ****  */
 421:cmsis_core/core_cm0.c **** uint32_t __REV16(uint16_t value)
 422:cmsis_core/core_cm0.c **** {
 332              		.loc 1 422 0
 333              		.cfi_startproc
 334 0000 84B0     		sub	sp, sp, #16	@,,
 335              	.LCFI5:
 336              		.cfi_def_cfa_offset 16
 337 0002 0200     		movs	r2, r0	@ tmp112, value
 338 0004 6B46     		mov	r3, sp	@ tmp120,
 339 0006 0633     		adds	r3, r3, #6	@ tmp113,
 340 0008 1A80     		strh	r2, [r3]	@ tmp114, value
 423:cmsis_core/core_cm0.c ****   uint32_t result=0;
 341              		.loc 1 423 0
 342 000a 0023     		movs	r3, #0	@ tmp115,
 343 000c 0393     		str	r3, [sp, #12]	@ tmp115, result
 424:cmsis_core/core_cm0.c ****   
 425:cmsis_core/core_cm0.c ****   __ASM volatile ("rev16 %0, %1" : "=r" (result) : "r" (value) );
 344              		.loc 1 425 0
 345 000e 6B46     		mov	r3, sp	@ tmp121,
 346 0010 0633     		adds	r3, r3, #6	@ tmp117,
 347 0012 1B88     		ldrh	r3, [r3]	@ tmp118, value
 348              		.syntax divided
 349              	@ 425 "cmsis_core/core_cm0.c" 1
 350 0014 5BBA     		rev16 r3, r3	@ result, tmp118
 351              	@ 0 "" 2
 352              		.thumb
 353              		.syntax unified
 354 0016 0393     		str	r3, [sp, #12]	@ result, result
 426:cmsis_core/core_cm0.c ****   return(result);
 355              		.loc 1 426 0
 356 0018 039B     		ldr	r3, [sp, #12]	@ D.4295, result
 427:cmsis_core/core_cm0.c **** }
 357              		.loc 1 427 0
 358 001a 1800     		movs	r0, r3	@, <retval>
 359 001c 04B0     		add	sp, sp, #16	@,,
 360              		@ sp needed	@
 361 001e 7047     		bx	lr
 362              		.cfi_endproc
 363              	.LFE9:
 364              		.size	__REV16, .-__REV16
 365              		.section	.text.__REVSH,"ax",%progbits
 366              		.align	2
 367              		.global	__REVSH
 368              		.code	16
 369              		.thumb_func
 370              		.type	__REVSH, %function
 371              	__REVSH:
ARM GAS  /tmp/ccBRnU2t.s 			page 15


 372              	.LFB10:
 428:cmsis_core/core_cm0.c **** 
 429:cmsis_core/core_cm0.c **** /**
 430:cmsis_core/core_cm0.c ****  * @brief  Reverse byte order in signed short value with sign extension to integer
 431:cmsis_core/core_cm0.c ****  *
 432:cmsis_core/core_cm0.c ****  * @param  value  value to reverse
 433:cmsis_core/core_cm0.c ****  * @return        reversed value
 434:cmsis_core/core_cm0.c ****  *
 435:cmsis_core/core_cm0.c ****  * Reverse byte order in signed short value with sign extension to integer
 436:cmsis_core/core_cm0.c ****  */
 437:cmsis_core/core_cm0.c **** int32_t __REVSH(int16_t value)
 438:cmsis_core/core_cm0.c **** {
 373              		.loc 1 438 0
 374              		.cfi_startproc
 375 0000 84B0     		sub	sp, sp, #16	@,,
 376              	.LCFI6:
 377              		.cfi_def_cfa_offset 16
 378 0002 0200     		movs	r2, r0	@ tmp112, value
 379 0004 6B46     		mov	r3, sp	@ tmp120,
 380 0006 0633     		adds	r3, r3, #6	@ tmp113,
 381 0008 1A80     		strh	r2, [r3]	@ tmp114, value
 439:cmsis_core/core_cm0.c ****   uint32_t result=0;
 382              		.loc 1 439 0
 383 000a 0023     		movs	r3, #0	@ tmp115,
 384 000c 0393     		str	r3, [sp, #12]	@ tmp115, result
 440:cmsis_core/core_cm0.c ****   
 441:cmsis_core/core_cm0.c ****   __ASM volatile ("revsh %0, %1" : "=r" (result) : "r" (value) );
 385              		.loc 1 441 0
 386 000e 6B46     		mov	r3, sp	@ tmp121,
 387 0010 0633     		adds	r3, r3, #6	@ tmp117,
 388 0012 1B88     		ldrh	r3, [r3]	@ tmp118, value
 389              		.syntax divided
 390              	@ 441 "cmsis_core/core_cm0.c" 1
 391 0014 DBBA     		revsh r3, r3	@ result, tmp118
 392              	@ 0 "" 2
 393              		.thumb
 394              		.syntax unified
 395 0016 0393     		str	r3, [sp, #12]	@ result, result
 442:cmsis_core/core_cm0.c ****   return(result);
 396              		.loc 1 442 0
 397 0018 039B     		ldr	r3, [sp, #12]	@ D.4297, result
 443:cmsis_core/core_cm0.c **** }
 398              		.loc 1 443 0
 399 001a 1800     		movs	r0, r3	@, <retval>
 400 001c 04B0     		add	sp, sp, #16	@,,
 401              		@ sp needed	@
 402 001e 7047     		bx	lr
 403              		.cfi_endproc
 404              	.LFE10:
 405              		.size	__REVSH, .-__REVSH
 406              		.text
 407              	.Letext0:
 408              		.file 2 "/usr/local/sbin/gcc-arm-none-eabi-5_2-2015q4/arm-none-eabi/include/machine/_default_types
 409              		.file 3 "/usr/local/sbin/gcc-arm-none-eabi-5_2-2015q4/arm-none-eabi/include/sys/_stdint.h"