ARM GAS  /tmp/ccxDPtyO.s 			page 1


   1              		.syntax unified
   2              		.cpu cortex-m0
   3              		.fpu softvfp
   4              		.eabi_attribute 20, 1	@ Tag_ABI_FP_denormal
   5              		.eabi_attribute 21, 1	@ Tag_ABI_FP_exceptions
   6              		.eabi_attribute 23, 3	@ Tag_ABI_FP_number_model
   7              		.eabi_attribute 24, 1	@ Tag_ABI_align8_needed
   8              		.eabi_attribute 25, 1	@ Tag_ABI_align8_preserved
   9              		.eabi_attribute 26, 1	@ Tag_ABI_enum_size
  10              		.eabi_attribute 30, 6	@ Tag_ABI_optimization_goals
  11              		.eabi_attribute 34, 0	@ Tag_CPU_unaligned_access
  12              		.eabi_attribute 18, 4	@ Tag_ABI_PCS_wchar_t
  13              		.file	"system_stm32f0xx.c"
  14              	@ GNU C11 (GNU Tools for ARM Embedded Processors) version 5.2.1 20151202 (release) [ARM/embedded-5-
  15              	@	compiled by GNU C version 4.7.4, GMP version 4.3.2, MPFR version 2.4.2, MPC version 0.8.1
  16              	@ GGC heuristics: --param ggc-min-expand=100 --param ggc-min-heapsize=131072
  17              	@ options passed:  -I . -I ./src -I ./cmsis_boot -I ./cmsis_core
  18              	@ -imultilib armv6-m
  19              	@ -iprefix /usr/local/sbin/gcc-arm-none-eabi-5_2-2015q4/bin/../lib/gcc/arm-none-eabi/5.2.1/
  20              	@ -isysroot /usr/local/sbin/gcc-arm-none-eabi-5_2-2015q4/bin/../arm-none-eabi
  21              	@ -D__USES_INITFINI__ -D STM32F030 cmsis_boot/system_stm32f0xx.c
  22              	@ -mcpu=cortex-m0 -mthumb -auxbase-strip cmsis_boot/system_stm32f0xx.o -g
  23              	@ -gdwarf-2 -O0 -Wall -fomit-frame-pointer -fdata-sections
  24              	@ -ffunction-sections -fverbose-asm
  25              	@ options enabled:  -faggressive-loop-optimizations -fauto-inc-dec
  26              	@ -fchkp-check-incomplete-type -fchkp-check-read -fchkp-check-write
  27              	@ -fchkp-instrument-calls -fchkp-narrow-bounds -fchkp-optimize
  28              	@ -fchkp-store-bounds -fchkp-use-static-bounds
  29              	@ -fchkp-use-static-const-bounds -fchkp-use-wrappers -fcommon
  30              	@ -fdata-sections -fdelete-null-pointer-checks -fdwarf2-cfi-asm
  31              	@ -fearly-inlining -feliminate-unused-debug-types -ffunction-cse
  32              	@ -ffunction-sections -fgcse-lm -fgnu-runtime -fgnu-unique -fident
  33              	@ -finline-atomics -fira-hoist-pressure -fira-share-save-slots
  34              	@ -fira-share-spill-slots -fivopts -fkeep-static-consts
  35              	@ -fleading-underscore -flifetime-dse -flto-odr-type-merging -fmath-errno
  36              	@ -fmerge-debug-strings -fomit-frame-pointer -fpeephole
  37              	@ -fprefetch-loop-arrays -freg-struct-return
  38              	@ -fsched-critical-path-heuristic -fsched-dep-count-heuristic
  39              	@ -fsched-group-heuristic -fsched-interblock -fsched-last-insn-heuristic
  40              	@ -fsched-rank-heuristic -fsched-spec -fsched-spec-insn-heuristic
  41              	@ -fsched-stalled-insns-dep -fsemantic-interposition -fshow-column
  42              	@ -fsigned-zeros -fsplit-ivs-in-unroller -fstdarg-opt
  43              	@ -fstrict-volatile-bitfields -fsync-libcalls -ftrapping-math
  44              	@ -ftree-coalesce-vars -ftree-cselim -ftree-forwprop -ftree-loop-if-convert
  45              	@ -ftree-loop-im -ftree-loop-ivcanon -ftree-loop-optimize
  46              	@ -ftree-parallelize-loops= -ftree-phiprop -ftree-reassoc -ftree-scev-cprop
  47              	@ -funit-at-a-time -fverbose-asm -fzero-initialized-in-bss -mlittle-endian
  48              	@ -mpic-data-is-text-relative -msched-prolog -mthumb
  49              	@ -mvectorize-with-neon-quad
  50              	
  51              		.text
  52              	.Ltext0:
  53              		.cfi_sections	.debug_frame
  54              		.global	SystemCoreClock
  55              		.section	.data.SystemCoreClock,"aw",%progbits
  56              		.align	2
  57              		.type	SystemCoreClock, %object
ARM GAS  /tmp/ccxDPtyO.s 			page 2


  58              		.size	SystemCoreClock, 4
  59              	SystemCoreClock:
  60 0000 006CDC02 		.word	48000000
  61              		.global	AHBPrescTable
  62              		.section	.data.AHBPrescTable,"aw",%progbits
  63              		.align	2
  64              		.type	AHBPrescTable, %object
  65              		.size	AHBPrescTable, 16
  66              	AHBPrescTable:
  67 0000 00       		.byte	0
  68 0001 00       		.byte	0
  69 0002 00       		.byte	0
  70 0003 00       		.byte	0
  71 0004 00       		.byte	0
  72 0005 00       		.byte	0
  73 0006 00       		.byte	0
  74 0007 00       		.byte	0
  75 0008 01       		.byte	1
  76 0009 02       		.byte	2
  77 000a 03       		.byte	3
  78 000b 04       		.byte	4
  79 000c 06       		.byte	6
  80 000d 07       		.byte	7
  81 000e 08       		.byte	8
  82 000f 09       		.byte	9
  83              		.section	.text.SystemInit,"ax",%progbits
  84              		.align	2
  85              		.global	SystemInit
  86              		.code	16
  87              		.thumb_func
  88              		.type	SystemInit, %function
  89              	SystemInit:
  90              	.LFB20:
  91              		.file 1 "cmsis_boot/system_stm32f0xx.c"
   1:cmsis_boot/system_stm32f0xx.c **** /**
   2:cmsis_boot/system_stm32f0xx.c ****   ******************************************************************************
   3:cmsis_boot/system_stm32f0xx.c ****   * @file    system_stm32f0xx.c
   4:cmsis_boot/system_stm32f0xx.c ****   * @author  MCD Application Team
   5:cmsis_boot/system_stm32f0xx.c ****   * @version V1.0.1
   6:cmsis_boot/system_stm32f0xx.c ****   * @date    20-April-2012
   7:cmsis_boot/system_stm32f0xx.c ****   * @brief   CMSIS Cortex-M0 Device Peripheral Access Layer System Source File.
   8:cmsis_boot/system_stm32f0xx.c ****   *          This file contains the system clock configuration for STM32F0xx devices,
   9:cmsis_boot/system_stm32f0xx.c ****   *          and is generated by the clock configuration tool  
  10:cmsis_boot/system_stm32f0xx.c ****   *          STM32F0xx_Clock_Configuration_V1.0.0.xls
  11:cmsis_boot/system_stm32f0xx.c ****   *
  12:cmsis_boot/system_stm32f0xx.c ****   * 1.  This file provides two functions and one global variable to be called from 
  13:cmsis_boot/system_stm32f0xx.c ****   *     user application:
  14:cmsis_boot/system_stm32f0xx.c ****   *      - SystemInit(): Setups the system clock (System clock source, PLL Multiplier
  15:cmsis_boot/system_stm32f0xx.c ****   *                      and Divider factors, AHB/APBx prescalers and Flash settings),
  16:cmsis_boot/system_stm32f0xx.c ****   *                      depending on the configuration made in the clock xls tool.
  17:cmsis_boot/system_stm32f0xx.c ****   *                      This function is called at startup just after reset and 
  18:cmsis_boot/system_stm32f0xx.c ****   *                      before branch to main program. This call is made inside
  19:cmsis_boot/system_stm32f0xx.c ****   *                      the "startup_stm32f0xx.s" file.
  20:cmsis_boot/system_stm32f0xx.c ****   *
  21:cmsis_boot/system_stm32f0xx.c ****   *      - SystemCoreClock variable: Contains the core clock (HCLK), it can be used
  22:cmsis_boot/system_stm32f0xx.c ****   *                                  by the user application to setup the SysTick 
  23:cmsis_boot/system_stm32f0xx.c ****   *                                  timer or configure other parameters.
ARM GAS  /tmp/ccxDPtyO.s 			page 3


  24:cmsis_boot/system_stm32f0xx.c ****   *
  25:cmsis_boot/system_stm32f0xx.c ****   *      - SystemCoreClockUpdate(): Updates the variable SystemCoreClock and must
  26:cmsis_boot/system_stm32f0xx.c ****   *                                 be called whenever the core clock is changed
  27:cmsis_boot/system_stm32f0xx.c ****   *                                 during program execution.
  28:cmsis_boot/system_stm32f0xx.c ****   *
  29:cmsis_boot/system_stm32f0xx.c ****   * 2. After each device reset the HSI (8 MHz Range) is used as system clock source.
  30:cmsis_boot/system_stm32f0xx.c ****   *    Then SystemInit() function is called, in "startup_stm32f0xx.s" file, to
  31:cmsis_boot/system_stm32f0xx.c ****   *    configure the system clock before to branch to main program.
  32:cmsis_boot/system_stm32f0xx.c ****   *
  33:cmsis_boot/system_stm32f0xx.c ****   * 3. If the system clock source selected by user fails to startup, the SystemInit()
  34:cmsis_boot/system_stm32f0xx.c ****   *    function will do nothing and HSI still used as system clock source. User can 
  35:cmsis_boot/system_stm32f0xx.c ****   *    add some code to deal with this issue inside the SetSysClock() function.
  36:cmsis_boot/system_stm32f0xx.c ****   *
  37:cmsis_boot/system_stm32f0xx.c ****   * 4. The default value of HSE crystal is set to 8MHz, refer to "HSE_VALUE" define
  38:cmsis_boot/system_stm32f0xx.c ****   *    in "stm32f0xx.h" file. When HSE is used as system clock source, directly or
  39:cmsis_boot/system_stm32f0xx.c ****   *    through PLL, and you are using different crystal you have to adapt the HSE
  40:cmsis_boot/system_stm32f0xx.c ****   *    value to your own configuration.
  41:cmsis_boot/system_stm32f0xx.c ****   *
  42:cmsis_boot/system_stm32f0xx.c ****   * 5. This file configures the system clock as follows:
  43:cmsis_boot/system_stm32f0xx.c ****   *=============================================================================
  44:cmsis_boot/system_stm32f0xx.c ****   *                         System Clock Configuration
  45:cmsis_boot/system_stm32f0xx.c ****   *=============================================================================
  46:cmsis_boot/system_stm32f0xx.c ****   *        System Clock source          | PLL(HSE)
  47:cmsis_boot/system_stm32f0xx.c ****   *-----------------------------------------------------------------------------
  48:cmsis_boot/system_stm32f0xx.c ****   *        SYSCLK                       | 48000000 Hz
  49:cmsis_boot/system_stm32f0xx.c ****   *-----------------------------------------------------------------------------
  50:cmsis_boot/system_stm32f0xx.c ****   *        HCLK                         | 48000000 Hz
  51:cmsis_boot/system_stm32f0xx.c ****   *-----------------------------------------------------------------------------
  52:cmsis_boot/system_stm32f0xx.c ****   *        AHB Prescaler                | 1
  53:cmsis_boot/system_stm32f0xx.c ****   *-----------------------------------------------------------------------------
  54:cmsis_boot/system_stm32f0xx.c ****   *        APB1 Prescaler               | 1
  55:cmsis_boot/system_stm32f0xx.c ****   *-----------------------------------------------------------------------------
  56:cmsis_boot/system_stm32f0xx.c ****   *        APB2 Prescaler               | 1
  57:cmsis_boot/system_stm32f0xx.c ****   *-----------------------------------------------------------------------------
  58:cmsis_boot/system_stm32f0xx.c ****   *        HSE Frequency                | 8000000 Hz
  59:cmsis_boot/system_stm32f0xx.c ****   *-----------------------------------------------------------------------------
  60:cmsis_boot/system_stm32f0xx.c ****   *        PLL MUL                      | 6
  61:cmsis_boot/system_stm32f0xx.c ****   *-----------------------------------------------------------------------------
  62:cmsis_boot/system_stm32f0xx.c ****   *        VDD                          | 3.3 V
  63:cmsis_boot/system_stm32f0xx.c ****   *-----------------------------------------------------------------------------
  64:cmsis_boot/system_stm32f0xx.c ****   *        Flash Latency                | 1 WS
  65:cmsis_boot/system_stm32f0xx.c ****   *-----------------------------------------------------------------------------
  66:cmsis_boot/system_stm32f0xx.c ****   *=============================================================================
  67:cmsis_boot/system_stm32f0xx.c ****   ******************************************************************************
  68:cmsis_boot/system_stm32f0xx.c ****   * @attention
  69:cmsis_boot/system_stm32f0xx.c ****   *
  70:cmsis_boot/system_stm32f0xx.c ****   * <h2><center>&copy; COPYRIGHT 2012 STMicroelectronics</center></h2>
  71:cmsis_boot/system_stm32f0xx.c ****   *
  72:cmsis_boot/system_stm32f0xx.c ****   * Licensed under MCD-ST Liberty SW License Agreement V2, (the "License");
  73:cmsis_boot/system_stm32f0xx.c ****   * You may not use this file except in compliance with the License.
  74:cmsis_boot/system_stm32f0xx.c ****   * You may obtain a copy of the License at:
  75:cmsis_boot/system_stm32f0xx.c ****   *
  76:cmsis_boot/system_stm32f0xx.c ****   *        http://www.st.com/software_license_agreement_liberty_v2
  77:cmsis_boot/system_stm32f0xx.c ****   *
  78:cmsis_boot/system_stm32f0xx.c ****   * Unless required by applicable law or agreed to in writing, software 
  79:cmsis_boot/system_stm32f0xx.c ****   * distributed under the License is distributed on an "AS IS" BASIS, 
  80:cmsis_boot/system_stm32f0xx.c ****   * WITHOUT WARRANTIES OR CONDITIONS OF ANY KIND, either express or implied.
ARM GAS  /tmp/ccxDPtyO.s 			page 4


  81:cmsis_boot/system_stm32f0xx.c ****   * See the License for the specific language governing permissions and
  82:cmsis_boot/system_stm32f0xx.c ****   * limitations under the License.
  83:cmsis_boot/system_stm32f0xx.c ****   *
  84:cmsis_boot/system_stm32f0xx.c ****   ******************************************************************************
  85:cmsis_boot/system_stm32f0xx.c ****   */
  86:cmsis_boot/system_stm32f0xx.c **** 
  87:cmsis_boot/system_stm32f0xx.c **** /** @addtogroup CMSIS
  88:cmsis_boot/system_stm32f0xx.c ****   * @{
  89:cmsis_boot/system_stm32f0xx.c ****   */
  90:cmsis_boot/system_stm32f0xx.c **** 
  91:cmsis_boot/system_stm32f0xx.c **** /** @addtogroup stm32f0xx_system
  92:cmsis_boot/system_stm32f0xx.c ****   * @{
  93:cmsis_boot/system_stm32f0xx.c ****   */  
  94:cmsis_boot/system_stm32f0xx.c ****   
  95:cmsis_boot/system_stm32f0xx.c **** /** @addtogroup STM32F0xx_System_Private_Includes
  96:cmsis_boot/system_stm32f0xx.c ****   * @{
  97:cmsis_boot/system_stm32f0xx.c ****   */
  98:cmsis_boot/system_stm32f0xx.c **** 
  99:cmsis_boot/system_stm32f0xx.c **** #include "stm32f0xx.h"
 100:cmsis_boot/system_stm32f0xx.c **** 
 101:cmsis_boot/system_stm32f0xx.c **** /**
 102:cmsis_boot/system_stm32f0xx.c ****   * @}
 103:cmsis_boot/system_stm32f0xx.c ****   */
 104:cmsis_boot/system_stm32f0xx.c **** 
 105:cmsis_boot/system_stm32f0xx.c **** /** @addtogroup STM32F0xx_System_Private_TypesDefinitions
 106:cmsis_boot/system_stm32f0xx.c ****   * @{
 107:cmsis_boot/system_stm32f0xx.c ****   */
 108:cmsis_boot/system_stm32f0xx.c **** 
 109:cmsis_boot/system_stm32f0xx.c **** /**
 110:cmsis_boot/system_stm32f0xx.c ****   * @}
 111:cmsis_boot/system_stm32f0xx.c ****   */
 112:cmsis_boot/system_stm32f0xx.c **** 
 113:cmsis_boot/system_stm32f0xx.c **** /** @addtogroup STM32F0xx_System_Private_Defines
 114:cmsis_boot/system_stm32f0xx.c ****   * @{
 115:cmsis_boot/system_stm32f0xx.c ****   */
 116:cmsis_boot/system_stm32f0xx.c **** /**
 117:cmsis_boot/system_stm32f0xx.c ****   * @}
 118:cmsis_boot/system_stm32f0xx.c ****   */
 119:cmsis_boot/system_stm32f0xx.c **** 
 120:cmsis_boot/system_stm32f0xx.c **** /** @addtogroup STM32F0xx_System_Private_Macros
 121:cmsis_boot/system_stm32f0xx.c ****   * @{
 122:cmsis_boot/system_stm32f0xx.c ****   */
 123:cmsis_boot/system_stm32f0xx.c **** 
 124:cmsis_boot/system_stm32f0xx.c **** /**
 125:cmsis_boot/system_stm32f0xx.c ****   * @}
 126:cmsis_boot/system_stm32f0xx.c ****   */
 127:cmsis_boot/system_stm32f0xx.c **** 
 128:cmsis_boot/system_stm32f0xx.c **** /** @addtogroup STM32F0xx_System_Private_Variables
 129:cmsis_boot/system_stm32f0xx.c ****   * @{
 130:cmsis_boot/system_stm32f0xx.c ****   */
 131:cmsis_boot/system_stm32f0xx.c **** uint32_t SystemCoreClock    = 48000000;
 132:cmsis_boot/system_stm32f0xx.c **** __I uint8_t AHBPrescTable[16] = {0, 0, 0, 0, 0, 0, 0, 0, 1, 2, 3, 4, 6, 7, 8, 9};
 133:cmsis_boot/system_stm32f0xx.c **** 
 134:cmsis_boot/system_stm32f0xx.c **** /**
 135:cmsis_boot/system_stm32f0xx.c ****   * @}
 136:cmsis_boot/system_stm32f0xx.c ****   */
 137:cmsis_boot/system_stm32f0xx.c **** 
ARM GAS  /tmp/ccxDPtyO.s 			page 5


 138:cmsis_boot/system_stm32f0xx.c **** /** @addtogroup STM32F0xx_System_Private_FunctionPrototypes
 139:cmsis_boot/system_stm32f0xx.c ****   * @{
 140:cmsis_boot/system_stm32f0xx.c ****   */
 141:cmsis_boot/system_stm32f0xx.c **** 
 142:cmsis_boot/system_stm32f0xx.c **** static void SetSysClock(void);
 143:cmsis_boot/system_stm32f0xx.c **** 
 144:cmsis_boot/system_stm32f0xx.c **** /**
 145:cmsis_boot/system_stm32f0xx.c ****   * @}
 146:cmsis_boot/system_stm32f0xx.c ****   */
 147:cmsis_boot/system_stm32f0xx.c **** 
 148:cmsis_boot/system_stm32f0xx.c **** /** @addtogroup STM32F0xx_System_Private_Functions
 149:cmsis_boot/system_stm32f0xx.c ****   * @{
 150:cmsis_boot/system_stm32f0xx.c ****   */
 151:cmsis_boot/system_stm32f0xx.c **** 
 152:cmsis_boot/system_stm32f0xx.c **** /**
 153:cmsis_boot/system_stm32f0xx.c ****   * @brief  Setup the microcontroller system.
 154:cmsis_boot/system_stm32f0xx.c ****   *         Initialize the Embedded Flash Interface, the PLL and update the 
 155:cmsis_boot/system_stm32f0xx.c ****   *         SystemCoreClock variable.
 156:cmsis_boot/system_stm32f0xx.c ****   * @param  None
 157:cmsis_boot/system_stm32f0xx.c ****   * @retval None
 158:cmsis_boot/system_stm32f0xx.c ****   */
 159:cmsis_boot/system_stm32f0xx.c **** void SystemInit (void)
 160:cmsis_boot/system_stm32f0xx.c **** {    
  92              		.loc 1 160 0
  93              		.cfi_startproc
  94 0000 10B5     		push	{r4, lr}	@
  95              	.LCFI0:
  96              		.cfi_def_cfa_offset 8
  97              		.cfi_offset 4, -8
  98              		.cfi_offset 14, -4
 161:cmsis_boot/system_stm32f0xx.c **** 	/* Set HSION bit */
 162:cmsis_boot/system_stm32f0xx.c **** 	RCC->CR |= (uint32_t)0x00000001;
  99              		.loc 1 162 0
 100 0002 1B4B     		ldr	r3, .L2	@ D.4961,
 101 0004 1A4A     		ldr	r2, .L2	@ D.4961,
 102 0006 1268     		ldr	r2, [r2]	@ D.4962, _2->CR
 103 0008 0121     		movs	r1, #1	@ tmp143,
 104 000a 0A43     		orrs	r2, r1	@ D.4962, tmp143
 105 000c 1A60     		str	r2, [r3]	@ D.4962, _1->CR
 163:cmsis_boot/system_stm32f0xx.c **** 
 164:cmsis_boot/system_stm32f0xx.c **** 	/* Reset SW[1:0], HPRE[3:0], PPRE[2:0], ADCPRE and MCOSEL[2:0] bits */
 165:cmsis_boot/system_stm32f0xx.c **** 	RCC->CFGR &= (uint32_t)0xF8FFB80C;
 106              		.loc 1 165 0
 107 000e 184B     		ldr	r3, .L2	@ D.4961,
 108 0010 174A     		ldr	r2, .L2	@ D.4961,
 109 0012 5268     		ldr	r2, [r2, #4]	@ D.4962, _8->CFGR
 110 0014 1749     		ldr	r1, .L2+4	@ tmp144,
 111 0016 0A40     		ands	r2, r1	@ D.4962, tmp144
 112 0018 5A60     		str	r2, [r3, #4]	@ D.4962, _7->CFGR
 166:cmsis_boot/system_stm32f0xx.c **** 
 167:cmsis_boot/system_stm32f0xx.c **** 	/* Reset HSEON, CSSON and PLLON bits */
 168:cmsis_boot/system_stm32f0xx.c **** 	RCC->CR &= (uint32_t)0xFEF6FFFF;
 113              		.loc 1 168 0
 114 001a 154B     		ldr	r3, .L2	@ D.4961,
 115 001c 144A     		ldr	r2, .L2	@ D.4961,
 116 001e 1268     		ldr	r2, [r2]	@ D.4962, _13->CR
 117 0020 1549     		ldr	r1, .L2+8	@ tmp145,
ARM GAS  /tmp/ccxDPtyO.s 			page 6


 118 0022 0A40     		ands	r2, r1	@ D.4962, tmp145
 119 0024 1A60     		str	r2, [r3]	@ D.4962, _12->CR
 169:cmsis_boot/system_stm32f0xx.c **** 
 170:cmsis_boot/system_stm32f0xx.c **** 	/* Reset HSEBYP bit */
 171:cmsis_boot/system_stm32f0xx.c **** 	RCC->CR &= (uint32_t)0xFFFBFFFF;
 120              		.loc 1 171 0
 121 0026 124B     		ldr	r3, .L2	@ D.4961,
 122 0028 114A     		ldr	r2, .L2	@ D.4961,
 123 002a 1268     		ldr	r2, [r2]	@ D.4962, _18->CR
 124 002c 1349     		ldr	r1, .L2+12	@ tmp146,
 125 002e 0A40     		ands	r2, r1	@ D.4962, tmp146
 126 0030 1A60     		str	r2, [r3]	@ D.4962, _17->CR
 172:cmsis_boot/system_stm32f0xx.c **** 
 173:cmsis_boot/system_stm32f0xx.c **** 	/* Reset PLLSRC, PLLXTPRE and PLLMUL[3:0] bits */
 174:cmsis_boot/system_stm32f0xx.c **** 	RCC->CFGR &= (uint32_t)0xFFC0FFFF;
 127              		.loc 1 174 0
 128 0032 0F4B     		ldr	r3, .L2	@ D.4961,
 129 0034 0E4A     		ldr	r2, .L2	@ D.4961,
 130 0036 5268     		ldr	r2, [r2, #4]	@ D.4962, _23->CFGR
 131 0038 1149     		ldr	r1, .L2+16	@ tmp147,
 132 003a 0A40     		ands	r2, r1	@ D.4962, tmp147
 133 003c 5A60     		str	r2, [r3, #4]	@ D.4962, _22->CFGR
 175:cmsis_boot/system_stm32f0xx.c **** 
 176:cmsis_boot/system_stm32f0xx.c **** 	/* Reset PREDIV1[3:0] bits */
 177:cmsis_boot/system_stm32f0xx.c **** 	RCC->CFGR2 &= (uint32_t)0xFFFFFFF0;
 134              		.loc 1 177 0
 135 003e 0C4B     		ldr	r3, .L2	@ D.4961,
 136 0040 0B4A     		ldr	r2, .L2	@ D.4961,
 137 0042 D26A     		ldr	r2, [r2, #44]	@ D.4962, _28->CFGR2
 138 0044 0F21     		movs	r1, #15	@ tmp148,
 139 0046 8A43     		bics	r2, r1	@ D.4962, tmp148
 140 0048 DA62     		str	r2, [r3, #44]	@ D.4962, _27->CFGR2
 178:cmsis_boot/system_stm32f0xx.c **** 
 179:cmsis_boot/system_stm32f0xx.c **** 	/* Reset USARTSW[1:0], I2CSW, CECSW and ADCSW bits */
 180:cmsis_boot/system_stm32f0xx.c **** 	RCC->CFGR3 &= (uint32_t)0xFFFFFEAC;
 141              		.loc 1 180 0
 142 004a 094B     		ldr	r3, .L2	@ D.4961,
 143 004c 084A     		ldr	r2, .L2	@ D.4961,
 144 004e 126B     		ldr	r2, [r2, #48]	@ D.4962, _33->CFGR3
 145 0050 0C49     		ldr	r1, .L2+20	@ tmp149,
 146 0052 0A40     		ands	r2, r1	@ D.4962, tmp149
 147 0054 1A63     		str	r2, [r3, #48]	@ D.4962, _32->CFGR3
 181:cmsis_boot/system_stm32f0xx.c **** 
 182:cmsis_boot/system_stm32f0xx.c **** 	/* Reset HSI14 bit */
 183:cmsis_boot/system_stm32f0xx.c **** 	RCC->CR2 &= (uint32_t)0xFFFFFFFE;
 148              		.loc 1 183 0
 149 0056 064B     		ldr	r3, .L2	@ D.4961,
 150 0058 054A     		ldr	r2, .L2	@ D.4961,
 151 005a 526B     		ldr	r2, [r2, #52]	@ D.4962, _38->CR2
 152 005c 0121     		movs	r1, #1	@ tmp150,
 153 005e 8A43     		bics	r2, r1	@ D.4962, tmp150
 154 0060 5A63     		str	r2, [r3, #52]	@ D.4962, _37->CR2
 184:cmsis_boot/system_stm32f0xx.c **** 
 185:cmsis_boot/system_stm32f0xx.c **** 	/* Disable all interrupts */
 186:cmsis_boot/system_stm32f0xx.c **** 	RCC->CIR = 0x00000000;
 155              		.loc 1 186 0
 156 0062 034B     		ldr	r3, .L2	@ D.4961,
ARM GAS  /tmp/ccxDPtyO.s 			page 7


 157 0064 0022     		movs	r2, #0	@ tmp151,
 158 0066 9A60     		str	r2, [r3, #8]	@ tmp151, _42->CIR
 187:cmsis_boot/system_stm32f0xx.c **** 
 188:cmsis_boot/system_stm32f0xx.c **** 	/* Configure the System clock frequency, AHB/APBx prescalers and Flash settings */
 189:cmsis_boot/system_stm32f0xx.c **** 	//SetSysClock();
 190:cmsis_boot/system_stm32f0xx.c **** 	SetSysClockInternalRC();
 159              		.loc 1 190 0
 160 0068 FFF7FEFF 		bl	SetSysClockInternalRC	@
 191:cmsis_boot/system_stm32f0xx.c **** }
 161              		.loc 1 191 0
 162 006c C046     		nop
 163              		@ sp needed	@
 164 006e 10BD     		pop	{r4, pc}
 165              	.L3:
 166              		.align	2
 167              	.L2:
 168 0070 00100240 		.word	1073876992
 169 0074 0CB8FFF8 		.word	-117458932
 170 0078 FFFFF6FE 		.word	-17367041
 171 007c FFFFFBFF 		.word	-262145
 172 0080 FFFFC0FF 		.word	-4128769
 173 0084 ACFEFFFF 		.word	-340
 174              		.cfi_endproc
 175              	.LFE20:
 176              		.size	SystemInit, .-SystemInit
 177              		.global	__aeabi_uidiv
 178              		.section	.text.SystemCoreClockUpdate,"ax",%progbits
 179              		.align	2
 180              		.global	SystemCoreClockUpdate
 181              		.code	16
 182              		.thumb_func
 183              		.type	SystemCoreClockUpdate, %function
 184              	SystemCoreClockUpdate:
 185              	.LFB21:
 192:cmsis_boot/system_stm32f0xx.c **** 
 193:cmsis_boot/system_stm32f0xx.c **** /**
 194:cmsis_boot/system_stm32f0xx.c ****   * @brief  Update SystemCoreClock according to Clock Register Values
 195:cmsis_boot/system_stm32f0xx.c ****   *         The SystemCoreClock variable contains the core clock (HCLK), it can
 196:cmsis_boot/system_stm32f0xx.c ****   *         be used by the user application to setup the SysTick timer or configure
 197:cmsis_boot/system_stm32f0xx.c ****   *         other parameters.
 198:cmsis_boot/system_stm32f0xx.c ****   *
 199:cmsis_boot/system_stm32f0xx.c ****   * @note   Each time the core clock (HCLK) changes, this function must be called
 200:cmsis_boot/system_stm32f0xx.c ****   *         to update SystemCoreClock variable value. Otherwise, any configuration
 201:cmsis_boot/system_stm32f0xx.c ****   *         based on this variable will be incorrect.         
 202:cmsis_boot/system_stm32f0xx.c ****   *
 203:cmsis_boot/system_stm32f0xx.c ****   * @note   - The system frequency computed by this function is not the real 
 204:cmsis_boot/system_stm32f0xx.c ****   *           frequency in the chip. It is calculated based on the predefined 
 205:cmsis_boot/system_stm32f0xx.c ****   *           constant and the selected clock source:
 206:cmsis_boot/system_stm32f0xx.c ****   *
 207:cmsis_boot/system_stm32f0xx.c ****   *           - If SYSCLK source is HSI, SystemCoreClock will contain the HSI_VALUE(*)
 208:cmsis_boot/system_stm32f0xx.c ****   *                                              
 209:cmsis_boot/system_stm32f0xx.c ****   *           - If SYSCLK source is HSE, SystemCoreClock will contain the HSE_VALUE(**)
 210:cmsis_boot/system_stm32f0xx.c ****   *                          
 211:cmsis_boot/system_stm32f0xx.c ****   *           - If SYSCLK source is PLL, SystemCoreClock will contain the HSE_VALUE(**)
 212:cmsis_boot/system_stm32f0xx.c ****   *             or HSI_VALUE(*) multiplied/divided by the PLL factors.
 213:cmsis_boot/system_stm32f0xx.c ****   *
 214:cmsis_boot/system_stm32f0xx.c ****   *         (*) HSI_VALUE is a constant defined in stm32f0xx.h file (default value
ARM GAS  /tmp/ccxDPtyO.s 			page 8


 215:cmsis_boot/system_stm32f0xx.c ****   *             8 MHz) but the real value may vary depending on the variations
 216:cmsis_boot/system_stm32f0xx.c ****   *             in voltage and temperature.
 217:cmsis_boot/system_stm32f0xx.c ****   *
 218:cmsis_boot/system_stm32f0xx.c ****   *         (**) HSE_VALUE is a constant defined in stm32f0xx.h file (default value
 219:cmsis_boot/system_stm32f0xx.c ****   *              8 MHz), user has to ensure that HSE_VALUE is same as the real
 220:cmsis_boot/system_stm32f0xx.c ****   *              frequency of the crystal used. Otherwise, this function may
 221:cmsis_boot/system_stm32f0xx.c ****   *              have wrong result.
 222:cmsis_boot/system_stm32f0xx.c ****   *
 223:cmsis_boot/system_stm32f0xx.c ****   *         - The result of this function could be not correct when using fractional
 224:cmsis_boot/system_stm32f0xx.c ****   *           value for HSE crystal.
 225:cmsis_boot/system_stm32f0xx.c ****   * @param  None
 226:cmsis_boot/system_stm32f0xx.c ****   * @retval None
 227:cmsis_boot/system_stm32f0xx.c ****   */
 228:cmsis_boot/system_stm32f0xx.c **** void SystemCoreClockUpdate (void)
 229:cmsis_boot/system_stm32f0xx.c **** {
 186              		.loc 1 229 0
 187              		.cfi_startproc
 188 0000 00B5     		push	{lr}	@
 189              	.LCFI1:
 190              		.cfi_def_cfa_offset 4
 191              		.cfi_offset 14, -4
 192 0002 85B0     		sub	sp, sp, #20	@,,
 193              	.LCFI2:
 194              		.cfi_def_cfa_offset 24
 230:cmsis_boot/system_stm32f0xx.c ****   uint32_t tmp = 0, pllmull = 0, pllsource = 0, prediv1factor = 0;
 195              		.loc 1 230 0
 196 0004 0023     		movs	r3, #0	@ tmp130,
 197 0006 0393     		str	r3, [sp, #12]	@ tmp130, tmp
 198 0008 0023     		movs	r3, #0	@ tmp131,
 199 000a 0293     		str	r3, [sp, #8]	@ tmp131, pllmull
 200 000c 0023     		movs	r3, #0	@ tmp132,
 201 000e 0193     		str	r3, [sp, #4]	@ tmp132, pllsource
 202 0010 0023     		movs	r3, #0	@ tmp133,
 203 0012 0093     		str	r3, [sp]	@ tmp133, prediv1factor
 231:cmsis_boot/system_stm32f0xx.c **** 
 232:cmsis_boot/system_stm32f0xx.c ****   /* Get SYSCLK source -------------------------------------------------------*/
 233:cmsis_boot/system_stm32f0xx.c ****   tmp = RCC->CFGR & RCC_CFGR_SWS;
 204              		.loc 1 233 0
 205 0014 294B     		ldr	r3, .L13	@ D.4963,
 206 0016 5B68     		ldr	r3, [r3, #4]	@ D.4964, _7->CFGR
 207 0018 0C22     		movs	r2, #12	@ tmp135,
 208 001a 1340     		ands	r3, r2	@ tmp134, tmp135
 209 001c 0393     		str	r3, [sp, #12]	@ tmp134, tmp
 234:cmsis_boot/system_stm32f0xx.c ****   
 235:cmsis_boot/system_stm32f0xx.c ****   switch (tmp)
 210              		.loc 1 235 0
 211 001e 039B     		ldr	r3, [sp, #12]	@ tmp, tmp
 212 0020 042B     		cmp	r3, #4	@ tmp,
 213 0022 07D0     		beq	.L6	@,
 214 0024 082B     		cmp	r3, #8	@ tmp,
 215 0026 09D0     		beq	.L7	@,
 216 0028 002B     		cmp	r3, #0	@ tmp,
 217 002a 31D1     		bne	.L12	@,
 236:cmsis_boot/system_stm32f0xx.c ****   {
 237:cmsis_boot/system_stm32f0xx.c ****     case 0x00:  /* HSI used as system clock */
 238:cmsis_boot/system_stm32f0xx.c ****       SystemCoreClock = HSI_VALUE;
 218              		.loc 1 238 0
ARM GAS  /tmp/ccxDPtyO.s 			page 9


 219 002c 244B     		ldr	r3, .L13+4	@ tmp137,
 220 002e 254A     		ldr	r2, .L13+8	@ tmp138,
 221 0030 1A60     		str	r2, [r3]	@ tmp138, SystemCoreClock
 239:cmsis_boot/system_stm32f0xx.c ****       break;
 222              		.loc 1 239 0
 223 0032 31E0     		b	.L9	@
 224              	.L6:
 240:cmsis_boot/system_stm32f0xx.c ****     case 0x04:  /* HSE used as system clock */
 241:cmsis_boot/system_stm32f0xx.c ****       SystemCoreClock = HSE_VALUE;
 225              		.loc 1 241 0
 226 0034 224B     		ldr	r3, .L13+4	@ tmp139,
 227 0036 234A     		ldr	r2, .L13+8	@ tmp140,
 228 0038 1A60     		str	r2, [r3]	@ tmp140, SystemCoreClock
 242:cmsis_boot/system_stm32f0xx.c ****       break;
 229              		.loc 1 242 0
 230 003a 2DE0     		b	.L9	@
 231              	.L7:
 243:cmsis_boot/system_stm32f0xx.c ****     case 0x08:  /* PLL used as system clock */
 244:cmsis_boot/system_stm32f0xx.c ****       /* Get PLL clock source and multiplication factor ----------------------*/
 245:cmsis_boot/system_stm32f0xx.c ****       pllmull = RCC->CFGR & RCC_CFGR_PLLMULL;
 232              		.loc 1 245 0
 233 003c 1F4B     		ldr	r3, .L13	@ D.4963,
 234 003e 5A68     		ldr	r2, [r3, #4]	@ D.4964, _13->CFGR
 235 0040 F023     		movs	r3, #240	@ tmp167,
 236 0042 9B03     		lsls	r3, r3, #14	@ tmp142, tmp167,
 237 0044 1340     		ands	r3, r2	@ tmp141, D.4964
 238 0046 0293     		str	r3, [sp, #8]	@ tmp141, pllmull
 246:cmsis_boot/system_stm32f0xx.c ****       pllsource = RCC->CFGR & RCC_CFGR_PLLSRC;
 239              		.loc 1 246 0
 240 0048 1C4B     		ldr	r3, .L13	@ D.4963,
 241 004a 5A68     		ldr	r2, [r3, #4]	@ D.4964, _16->CFGR
 242 004c C023     		movs	r3, #192	@ tmp168,
 243 004e 5B02     		lsls	r3, r3, #9	@ tmp144, tmp168,
 244 0050 1340     		ands	r3, r2	@ tmp143, D.4964
 245 0052 0193     		str	r3, [sp, #4]	@ tmp143, pllsource
 247:cmsis_boot/system_stm32f0xx.c ****       pllmull = ( pllmull >> 18) + 2;
 246              		.loc 1 247 0
 247 0054 029B     		ldr	r3, [sp, #8]	@ tmp145, pllmull
 248 0056 9B0C     		lsrs	r3, r3, #18	@ D.4964, tmp145,
 249 0058 0233     		adds	r3, r3, #2	@ tmp146,
 250 005a 0293     		str	r3, [sp, #8]	@ tmp146, pllmull
 248:cmsis_boot/system_stm32f0xx.c ****       
 249:cmsis_boot/system_stm32f0xx.c ****       if (pllsource == 0x00)
 251              		.loc 1 249 0
 252 005c 019B     		ldr	r3, [sp, #4]	@ tmp147, pllsource
 253 005e 002B     		cmp	r3, #0	@ tmp147,
 254 0060 05D1     		bne	.L10	@,
 250:cmsis_boot/system_stm32f0xx.c ****       {
 251:cmsis_boot/system_stm32f0xx.c ****         /* HSI oscillator clock divided by 2 selected as PLL clock entry */
 252:cmsis_boot/system_stm32f0xx.c ****         SystemCoreClock = (HSI_VALUE >> 1) * pllmull;
 255              		.loc 1 252 0
 256 0062 029B     		ldr	r3, [sp, #8]	@ tmp148, pllmull
 257 0064 184A     		ldr	r2, .L13+12	@ tmp149,
 258 0066 5A43     		muls	r2, r3	@ D.4964, tmp148
 259 0068 154B     		ldr	r3, .L13+4	@ tmp150,
 260 006a 1A60     		str	r2, [r3]	@ D.4964, SystemCoreClock
 253:cmsis_boot/system_stm32f0xx.c ****       }
ARM GAS  /tmp/ccxDPtyO.s 			page 10


 254:cmsis_boot/system_stm32f0xx.c ****       else
 255:cmsis_boot/system_stm32f0xx.c ****       {
 256:cmsis_boot/system_stm32f0xx.c ****         prediv1factor = (RCC->CFGR2 & RCC_CFGR2_PREDIV1) + 1;
 257:cmsis_boot/system_stm32f0xx.c ****         /* HSE oscillator clock selected as PREDIV1 clock entry */
 258:cmsis_boot/system_stm32f0xx.c ****         SystemCoreClock = (HSE_VALUE / prediv1factor) * pllmull; 
 259:cmsis_boot/system_stm32f0xx.c ****       }      
 260:cmsis_boot/system_stm32f0xx.c ****       break;
 261              		.loc 1 260 0
 262 006c 14E0     		b	.L9	@
 263              	.L10:
 256:cmsis_boot/system_stm32f0xx.c ****         /* HSE oscillator clock selected as PREDIV1 clock entry */
 264              		.loc 1 256 0
 265 006e 134B     		ldr	r3, .L13	@ D.4963,
 266 0070 DB6A     		ldr	r3, [r3, #44]	@ D.4964, _23->CFGR2
 267 0072 0F22     		movs	r2, #15	@ tmp151,
 268 0074 1340     		ands	r3, r2	@ D.4964, tmp151
 269 0076 0133     		adds	r3, r3, #1	@ tmp152,
 270 0078 0093     		str	r3, [sp]	@ tmp152, prediv1factor
 258:cmsis_boot/system_stm32f0xx.c ****       }      
 271              		.loc 1 258 0
 272 007a 0099     		ldr	r1, [sp]	@, prediv1factor
 273 007c 1148     		ldr	r0, .L13+8	@,
 274 007e FFF7FEFF 		bl	__aeabi_uidiv	@
 275 0082 0300     		movs	r3, r0	@ tmp155,
 276 0084 1A00     		movs	r2, r3	@ D.4964, tmp155
 277 0086 029B     		ldr	r3, [sp, #8]	@ tmp156, pllmull
 278 0088 5A43     		muls	r2, r3	@ D.4964, tmp156
 279 008a 0D4B     		ldr	r3, .L13+4	@ tmp157,
 280 008c 1A60     		str	r2, [r3]	@ D.4964, SystemCoreClock
 281              		.loc 1 260 0
 282 008e 03E0     		b	.L9	@
 283              	.L12:
 261:cmsis_boot/system_stm32f0xx.c ****     default: /* HSI used as system clock */
 262:cmsis_boot/system_stm32f0xx.c ****       SystemCoreClock = HSI_VALUE;
 284              		.loc 1 262 0
 285 0090 0B4B     		ldr	r3, .L13+4	@ tmp158,
 286 0092 0C4A     		ldr	r2, .L13+8	@ tmp159,
 287 0094 1A60     		str	r2, [r3]	@ tmp159, SystemCoreClock
 263:cmsis_boot/system_stm32f0xx.c ****       break;
 288              		.loc 1 263 0
 289 0096 C046     		nop
 290              	.L9:
 264:cmsis_boot/system_stm32f0xx.c ****   }
 265:cmsis_boot/system_stm32f0xx.c ****   /* Compute HCLK clock frequency ----------------*/
 266:cmsis_boot/system_stm32f0xx.c ****   /* Get HCLK prescaler */
 267:cmsis_boot/system_stm32f0xx.c ****   tmp = AHBPrescTable[((RCC->CFGR & RCC_CFGR_HPRE) >> 4)];
 291              		.loc 1 267 0
 292 0098 084B     		ldr	r3, .L13	@ D.4963,
 293 009a 5B68     		ldr	r3, [r3, #4]	@ D.4964, _31->CFGR
 294 009c F022     		movs	r2, #240	@ tmp160,
 295 009e 1340     		ands	r3, r2	@ D.4964, tmp160
 296 00a0 1B09     		lsrs	r3, r3, #4	@ D.4964, D.4964,
 297 00a2 0A4A     		ldr	r2, .L13+16	@ tmp161,
 298 00a4 D35C     		ldrb	r3, [r2, r3]	@ tmp163, AHBPrescTable
 299 00a6 DBB2     		uxtb	r3, r3	@ D.4965, tmp163
 300 00a8 0393     		str	r3, [sp, #12]	@ D.4965, tmp
 268:cmsis_boot/system_stm32f0xx.c ****   /* HCLK clock frequency */
ARM GAS  /tmp/ccxDPtyO.s 			page 11


 269:cmsis_boot/system_stm32f0xx.c ****   SystemCoreClock >>= tmp;  
 301              		.loc 1 269 0
 302 00aa 054B     		ldr	r3, .L13+4	@ tmp164,
 303 00ac 1A68     		ldr	r2, [r3]	@ D.4964, SystemCoreClock
 304 00ae 039B     		ldr	r3, [sp, #12]	@ tmp165, tmp
 305 00b0 DA40     		lsrs	r2, r2, r3	@ D.4964, D.4964, tmp165
 306 00b2 034B     		ldr	r3, .L13+4	@ tmp166,
 307 00b4 1A60     		str	r2, [r3]	@ D.4964, SystemCoreClock
 270:cmsis_boot/system_stm32f0xx.c **** }
 308              		.loc 1 270 0
 309 00b6 C046     		nop
 310 00b8 05B0     		add	sp, sp, #20	@,,
 311              		@ sp needed	@
 312 00ba 00BD     		pop	{pc}
 313              	.L14:
 314              		.align	2
 315              	.L13:
 316 00bc 00100240 		.word	1073876992
 317 00c0 00000000 		.word	SystemCoreClock
 318 00c4 00127A00 		.word	8000000
 319 00c8 00093D00 		.word	4000000
 320 00cc 00000000 		.word	AHBPrescTable
 321              		.cfi_endproc
 322              	.LFE21:
 323              		.size	SystemCoreClockUpdate, .-SystemCoreClockUpdate
 324              		.section	.text.SetSysClock,"ax",%progbits
 325              		.align	2
 326              		.code	16
 327              		.thumb_func
 328              		.type	SetSysClock, %function
 329              	SetSysClock:
 330              	.LFB22:
 271:cmsis_boot/system_stm32f0xx.c **** 
 272:cmsis_boot/system_stm32f0xx.c **** /**
 273:cmsis_boot/system_stm32f0xx.c ****   * @brief  Configures the System clock frequency, AHB/APBx prescalers and Flash
 274:cmsis_boot/system_stm32f0xx.c ****   *         settings.
 275:cmsis_boot/system_stm32f0xx.c ****   * @note   This function should be called only once the RCC clock configuration
 276:cmsis_boot/system_stm32f0xx.c ****   *         is reset to the default reset state (done in SystemInit() function).
 277:cmsis_boot/system_stm32f0xx.c ****   * @param  None
 278:cmsis_boot/system_stm32f0xx.c ****   * @retval None
 279:cmsis_boot/system_stm32f0xx.c ****   */
 280:cmsis_boot/system_stm32f0xx.c **** static void SetSysClock(void)
 281:cmsis_boot/system_stm32f0xx.c **** {
 331              		.loc 1 281 0
 332              		.cfi_startproc
 333 0000 82B0     		sub	sp, sp, #8	@,,
 334              	.LCFI3:
 335              		.cfi_def_cfa_offset 8
 282:cmsis_boot/system_stm32f0xx.c ****   __IO uint32_t StartUpCounter = 0, HSEStatus = 0;
 336              		.loc 1 282 0
 337 0002 0023     		movs	r3, #0	@ tmp202,
 338 0004 0193     		str	r3, [sp, #4]	@ tmp202, StartUpCounter
 339 0006 0023     		movs	r3, #0	@ tmp203,
 340 0008 0093     		str	r3, [sp]	@ tmp203, HSEStatus
 283:cmsis_boot/system_stm32f0xx.c ****   
 284:cmsis_boot/system_stm32f0xx.c ****   /* SYSCLK, HCLK, PCLK configuration ----------------------------------------*/
 285:cmsis_boot/system_stm32f0xx.c ****   /* Enable HSE */    
ARM GAS  /tmp/ccxDPtyO.s 			page 12


 286:cmsis_boot/system_stm32f0xx.c ****   RCC->CR |= ((uint32_t)RCC_CR_HSEON);
 341              		.loc 1 286 0
 342 000a 574B     		ldr	r3, .L28	@ D.4966,
 343 000c 564A     		ldr	r2, .L28	@ D.4966,
 344 000e 1268     		ldr	r2, [r2]	@ D.4967, _8->CR
 345 0010 8021     		movs	r1, #128	@ tmp238,
 346 0012 4902     		lsls	r1, r1, #9	@ tmp204, tmp238,
 347 0014 0A43     		orrs	r2, r1	@ D.4967, tmp204
 348 0016 1A60     		str	r2, [r3]	@ D.4967, _7->CR
 349              	.L17:
 287:cmsis_boot/system_stm32f0xx.c ****  
 288:cmsis_boot/system_stm32f0xx.c ****   /* Wait till HSE is ready and if Time out is reached exit */
 289:cmsis_boot/system_stm32f0xx.c ****   do
 290:cmsis_boot/system_stm32f0xx.c ****   {
 291:cmsis_boot/system_stm32f0xx.c ****     HSEStatus = RCC->CR & RCC_CR_HSERDY;
 350              		.loc 1 291 0 discriminator 2
 351 0018 534B     		ldr	r3, .L28	@ D.4966,
 352 001a 1A68     		ldr	r2, [r3]	@ D.4967, _12->CR
 353 001c 8023     		movs	r3, #128	@ tmp237,
 354 001e 9B02     		lsls	r3, r3, #10	@ tmp205, tmp237,
 355 0020 1340     		ands	r3, r2	@ D.4967, D.4967
 356 0022 0093     		str	r3, [sp]	@ D.4967, HSEStatus
 292:cmsis_boot/system_stm32f0xx.c ****     StartUpCounter++;  
 357              		.loc 1 292 0 discriminator 2
 358 0024 019B     		ldr	r3, [sp, #4]	@ D.4967, StartUpCounter
 359 0026 0133     		adds	r3, r3, #1	@ D.4967,
 360 0028 0193     		str	r3, [sp, #4]	@ D.4967, StartUpCounter
 293:cmsis_boot/system_stm32f0xx.c ****   } while((HSEStatus == 0) && (StartUpCounter != HSE_STARTUP_TIMEOUT));
 361              		.loc 1 293 0 discriminator 2
 362 002a 009B     		ldr	r3, [sp]	@ D.4967, HSEStatus
 363 002c 002B     		cmp	r3, #0	@ D.4967,
 364 002e 04D1     		bne	.L16	@,
 365              		.loc 1 293 0 is_stmt 0 discriminator 1
 366 0030 019A     		ldr	r2, [sp, #4]	@ D.4967, StartUpCounter
 367 0032 A023     		movs	r3, #160	@ tmp236,
 368 0034 DB01     		lsls	r3, r3, #7	@ tmp206, tmp236,
 369 0036 9A42     		cmp	r2, r3	@ D.4967, tmp206
 370 0038 EED1     		bne	.L17	@,
 371              	.L16:
 294:cmsis_boot/system_stm32f0xx.c **** 
 295:cmsis_boot/system_stm32f0xx.c ****   if ((RCC->CR & RCC_CR_HSERDY) != RESET)
 372              		.loc 1 295 0 is_stmt 1
 373 003a 4B4B     		ldr	r3, .L28	@ D.4966,
 374 003c 1A68     		ldr	r2, [r3]	@ D.4967, _21->CR
 375 003e 8023     		movs	r3, #128	@ tmp235,
 376 0040 9B02     		lsls	r3, r3, #10	@ tmp207, tmp235,
 377 0042 1340     		ands	r3, r2	@ D.4967, D.4967
 378 0044 02D0     		beq	.L18	@,
 296:cmsis_boot/system_stm32f0xx.c ****   {
 297:cmsis_boot/system_stm32f0xx.c ****     HSEStatus = (uint32_t)0x01;
 379              		.loc 1 297 0
 380 0046 0123     		movs	r3, #1	@ tmp208,
 381 0048 0093     		str	r3, [sp]	@ tmp208, HSEStatus
 382 004a 01E0     		b	.L19	@
 383              	.L18:
 298:cmsis_boot/system_stm32f0xx.c ****   }
 299:cmsis_boot/system_stm32f0xx.c ****   else
ARM GAS  /tmp/ccxDPtyO.s 			page 13


 300:cmsis_boot/system_stm32f0xx.c ****   {
 301:cmsis_boot/system_stm32f0xx.c ****     HSEStatus = (uint32_t)0x00;
 384              		.loc 1 301 0
 385 004c 0023     		movs	r3, #0	@ tmp209,
 386 004e 0093     		str	r3, [sp]	@ tmp209, HSEStatus
 387              	.L19:
 302:cmsis_boot/system_stm32f0xx.c ****   }  
 303:cmsis_boot/system_stm32f0xx.c **** 
 304:cmsis_boot/system_stm32f0xx.c ****   if (HSEStatus == (uint32_t)0x01)
 388              		.loc 1 304 0
 389 0050 009B     		ldr	r3, [sp]	@ D.4967, HSEStatus
 390 0052 012B     		cmp	r3, #1	@ D.4967,
 391 0054 39D1     		bne	.L20	@,
 305:cmsis_boot/system_stm32f0xx.c ****   {
 306:cmsis_boot/system_stm32f0xx.c ****     /* Enable Prefetch Buffer and set Flash Latency */
 307:cmsis_boot/system_stm32f0xx.c ****     FLASH->ACR = FLASH_ACR_PRFTBE | FLASH_ACR_LATENCY;
 392              		.loc 1 307 0
 393 0056 454B     		ldr	r3, .L28+4	@ D.4968,
 394 0058 1122     		movs	r2, #17	@ tmp210,
 395 005a 1A60     		str	r2, [r3]	@ tmp210, _27->ACR
 308:cmsis_boot/system_stm32f0xx.c ****  
 309:cmsis_boot/system_stm32f0xx.c ****     /* HCLK = SYSCLK */
 310:cmsis_boot/system_stm32f0xx.c ****     RCC->CFGR |= (uint32_t)RCC_CFGR_HPRE_DIV1;
 396              		.loc 1 310 0
 397 005c 424B     		ldr	r3, .L28	@ D.4966,
 398 005e 424A     		ldr	r2, .L28	@ D.4966,
 399 0060 5268     		ldr	r2, [r2, #4]	@ D.4967, _30->CFGR
 400 0062 5A60     		str	r2, [r3, #4]	@ D.4967, _29->CFGR
 311:cmsis_boot/system_stm32f0xx.c ****       
 312:cmsis_boot/system_stm32f0xx.c ****     /* PCLK = HCLK */
 313:cmsis_boot/system_stm32f0xx.c ****     RCC->CFGR |= (uint32_t)RCC_CFGR_PPRE_DIV1;
 401              		.loc 1 313 0
 402 0064 404B     		ldr	r3, .L28	@ D.4966,
 403 0066 404A     		ldr	r2, .L28	@ D.4966,
 404 0068 5268     		ldr	r2, [r2, #4]	@ D.4967, _34->CFGR
 405 006a 5A60     		str	r2, [r3, #4]	@ D.4967, _33->CFGR
 314:cmsis_boot/system_stm32f0xx.c **** 
 315:cmsis_boot/system_stm32f0xx.c ****     /* PLL configuration = HSE * 6 = 48 MHz */
 316:cmsis_boot/system_stm32f0xx.c ****     RCC->CFGR &= (uint32_t)((uint32_t)~(RCC_CFGR_PLLSRC | RCC_CFGR_PLLXTPRE | RCC_CFGR_PLLMULL));
 406              		.loc 1 316 0
 407 006c 3E4B     		ldr	r3, .L28	@ D.4966,
 408 006e 3E4A     		ldr	r2, .L28	@ D.4966,
 409 0070 5268     		ldr	r2, [r2, #4]	@ D.4967, _38->CFGR
 410 0072 3F49     		ldr	r1, .L28+8	@ tmp211,
 411 0074 0A40     		ands	r2, r1	@ D.4967, tmp211
 412 0076 5A60     		str	r2, [r3, #4]	@ D.4967, _37->CFGR
 317:cmsis_boot/system_stm32f0xx.c ****     RCC->CFGR |= (uint32_t)(RCC_CFGR_PLLSRC_PREDIV1 | RCC_CFGR_PLLXTPRE_PREDIV1 | RCC_CFGR_PLLMULL6
 413              		.loc 1 317 0
 414 0078 3B4B     		ldr	r3, .L28	@ D.4966,
 415 007a 3B4A     		ldr	r2, .L28	@ D.4966,
 416 007c 5268     		ldr	r2, [r2, #4]	@ D.4967, _43->CFGR
 417 007e 8821     		movs	r1, #136	@ tmp233,
 418 0080 4903     		lsls	r1, r1, #13	@ tmp212, tmp233,
 419 0082 0A43     		orrs	r2, r1	@ D.4967, tmp212
 420 0084 5A60     		str	r2, [r3, #4]	@ D.4967, _42->CFGR
 318:cmsis_boot/system_stm32f0xx.c ****             
 319:cmsis_boot/system_stm32f0xx.c ****     /* Enable PLL */
ARM GAS  /tmp/ccxDPtyO.s 			page 14


 320:cmsis_boot/system_stm32f0xx.c ****     RCC->CR |= RCC_CR_PLLON;
 421              		.loc 1 320 0
 422 0086 384B     		ldr	r3, .L28	@ D.4966,
 423 0088 374A     		ldr	r2, .L28	@ D.4966,
 424 008a 1268     		ldr	r2, [r2]	@ D.4967, _48->CR
 425 008c 8021     		movs	r1, #128	@ tmp234,
 426 008e 4904     		lsls	r1, r1, #17	@ tmp213, tmp234,
 427 0090 0A43     		orrs	r2, r1	@ D.4967, tmp213
 428 0092 1A60     		str	r2, [r3]	@ D.4967, _47->CR
 321:cmsis_boot/system_stm32f0xx.c **** 
 322:cmsis_boot/system_stm32f0xx.c ****     /* Wait till PLL is ready */
 323:cmsis_boot/system_stm32f0xx.c ****     while((RCC->CR & RCC_CR_PLLRDY) == 0)
 429              		.loc 1 323 0
 430 0094 C046     		nop
 431              	.L21:
 432              		.loc 1 323 0 is_stmt 0 discriminator 1
 433 0096 344B     		ldr	r3, .L28	@ D.4966,
 434 0098 1A68     		ldr	r2, [r3]	@ D.4967, _52->CR
 435 009a 8023     		movs	r3, #128	@ tmp232,
 436 009c 9B04     		lsls	r3, r3, #18	@ tmp214, tmp232,
 437 009e 1340     		ands	r3, r2	@ D.4967, D.4967
 438 00a0 F9D0     		beq	.L21	@,
 324:cmsis_boot/system_stm32f0xx.c ****     {
 325:cmsis_boot/system_stm32f0xx.c ****     }
 326:cmsis_boot/system_stm32f0xx.c **** 
 327:cmsis_boot/system_stm32f0xx.c ****     /* Select PLL as system clock source */
 328:cmsis_boot/system_stm32f0xx.c ****     RCC->CFGR &= (uint32_t)((uint32_t)~(RCC_CFGR_SW));
 439              		.loc 1 328 0 is_stmt 1
 440 00a2 314B     		ldr	r3, .L28	@ D.4966,
 441 00a4 304A     		ldr	r2, .L28	@ D.4966,
 442 00a6 5268     		ldr	r2, [r2, #4]	@ D.4967, _56->CFGR
 443 00a8 0321     		movs	r1, #3	@ tmp215,
 444 00aa 8A43     		bics	r2, r1	@ D.4967, tmp215
 445 00ac 5A60     		str	r2, [r3, #4]	@ D.4967, _55->CFGR
 329:cmsis_boot/system_stm32f0xx.c ****     RCC->CFGR |= (uint32_t)RCC_CFGR_SW_PLL;    
 446              		.loc 1 329 0
 447 00ae 2E4B     		ldr	r3, .L28	@ D.4966,
 448 00b0 2D4A     		ldr	r2, .L28	@ D.4966,
 449 00b2 5268     		ldr	r2, [r2, #4]	@ D.4967, _61->CFGR
 450 00b4 0221     		movs	r1, #2	@ tmp216,
 451 00b6 0A43     		orrs	r2, r1	@ D.4967, tmp216
 452 00b8 5A60     		str	r2, [r3, #4]	@ D.4967, _60->CFGR
 330:cmsis_boot/system_stm32f0xx.c **** 
 331:cmsis_boot/system_stm32f0xx.c ****     /* Wait till PLL is used as system clock source */
 332:cmsis_boot/system_stm32f0xx.c ****     while ((RCC->CFGR & (uint32_t)RCC_CFGR_SWS) != (uint32_t)RCC_CFGR_SWS_PLL)
 453              		.loc 1 332 0
 454 00ba C046     		nop
 455              	.L22:
 456              		.loc 1 332 0 is_stmt 0 discriminator 1
 457 00bc 2A4B     		ldr	r3, .L28	@ D.4966,
 458 00be 5B68     		ldr	r3, [r3, #4]	@ D.4967, _65->CFGR
 459 00c0 0C22     		movs	r2, #12	@ tmp217,
 460 00c2 1340     		ands	r3, r2	@ D.4967, tmp217
 461 00c4 082B     		cmp	r3, #8	@ D.4967,
 462 00c6 F9D1     		bne	.L22	@,
 333:cmsis_boot/system_stm32f0xx.c ****     {
 334:cmsis_boot/system_stm32f0xx.c ****     }
ARM GAS  /tmp/ccxDPtyO.s 			page 15


 335:cmsis_boot/system_stm32f0xx.c ****   }
 336:cmsis_boot/system_stm32f0xx.c ****   else
 337:cmsis_boot/system_stm32f0xx.c ****   { /* If HSE fails to start-up, the application will have wrong clock 
 338:cmsis_boot/system_stm32f0xx.c ****          configuration. User can add here some code to deal with this error */
 339:cmsis_boot/system_stm32f0xx.c **** 	  //--- Enable HSI clock ---//
 340:cmsis_boot/system_stm32f0xx.c **** 	  RCC->CR |= 0x00000001;
 341:cmsis_boot/system_stm32f0xx.c **** 
 342:cmsis_boot/system_stm32f0xx.c **** 	  //--- Wait for PLL ready ---//
 343:cmsis_boot/system_stm32f0xx.c **** 	  while (!(RCC->CR & 0x00000002));
 344:cmsis_boot/system_stm32f0xx.c **** 
 345:cmsis_boot/system_stm32f0xx.c **** 	  /* Enable Prefetch Buffer and set Flash Latency */
 346:cmsis_boot/system_stm32f0xx.c **** 	  FLASH->ACR = FLASH_ACR_PRFTBE | FLASH_ACR_LATENCY;
 347:cmsis_boot/system_stm32f0xx.c **** 
 348:cmsis_boot/system_stm32f0xx.c **** 	  /* HCLK = SYSCLK */
 349:cmsis_boot/system_stm32f0xx.c **** 	  RCC->CFGR |= (uint32_t)RCC_CFGR_HPRE_DIV1;
 350:cmsis_boot/system_stm32f0xx.c **** 
 351:cmsis_boot/system_stm32f0xx.c **** 	  /* PCLK = HCLK */
 352:cmsis_boot/system_stm32f0xx.c **** 	  RCC->CFGR |= (uint32_t)RCC_CFGR_PPRE_DIV1;
 353:cmsis_boot/system_stm32f0xx.c **** 
 354:cmsis_boot/system_stm32f0xx.c **** 	  /* PLL configuration = HSI/2 * 12 = 48 MHz */
 355:cmsis_boot/system_stm32f0xx.c **** 	  RCC->CFGR &= ~0x00010000; //PLL in HSI/2
 356:cmsis_boot/system_stm32f0xx.c **** 
 357:cmsis_boot/system_stm32f0xx.c **** 	  RCC->CFGR &= ~0x003C0000;
 358:cmsis_boot/system_stm32f0xx.c **** 	  RCC->CFGR |= 0x00280000;  //PLL mult x12
 359:cmsis_boot/system_stm32f0xx.c **** 
 360:cmsis_boot/system_stm32f0xx.c **** 	  /* Enable PLL */
 361:cmsis_boot/system_stm32f0xx.c **** 	  RCC->CR |= RCC_CR_PLLON;
 362:cmsis_boot/system_stm32f0xx.c **** 
 363:cmsis_boot/system_stm32f0xx.c **** 	  /* Wait till PLL is ready */
 364:cmsis_boot/system_stm32f0xx.c **** 	  while((RCC->CR & RCC_CR_PLLRDY) == 0)
 365:cmsis_boot/system_stm32f0xx.c **** 	  {
 366:cmsis_boot/system_stm32f0xx.c **** 	  }
 367:cmsis_boot/system_stm32f0xx.c **** 
 368:cmsis_boot/system_stm32f0xx.c **** 	  /* Select PLL as system clock source */
 369:cmsis_boot/system_stm32f0xx.c **** 	  RCC->CFGR &= (uint32_t)((uint32_t)~(RCC_CFGR_SW));
 370:cmsis_boot/system_stm32f0xx.c **** 	  RCC->CFGR |= (uint32_t)RCC_CFGR_SW_PLL;
 371:cmsis_boot/system_stm32f0xx.c **** 
 372:cmsis_boot/system_stm32f0xx.c **** 	  /* Wait till PLL is used as system clock source */
 373:cmsis_boot/system_stm32f0xx.c **** 	  while ((RCC->CFGR & (uint32_t)RCC_CFGR_SWS) != (uint32_t)RCC_CFGR_SWS_PLL)
 374:cmsis_boot/system_stm32f0xx.c **** 	  {
 375:cmsis_boot/system_stm32f0xx.c **** 	  }
 376:cmsis_boot/system_stm32f0xx.c ****   }  
 377:cmsis_boot/system_stm32f0xx.c **** }
 463              		.loc 1 377 0 is_stmt 1
 464 00c8 4AE0     		b	.L27	@
 465              	.L20:
 340:cmsis_boot/system_stm32f0xx.c **** 
 466              		.loc 1 340 0
 467 00ca 274B     		ldr	r3, .L28	@ D.4966,
 468 00cc 264A     		ldr	r2, .L28	@ D.4966,
 469 00ce 1268     		ldr	r2, [r2]	@ D.4967, _69->CR
 470 00d0 0121     		movs	r1, #1	@ tmp218,
 471 00d2 0A43     		orrs	r2, r1	@ D.4967, tmp218
 472 00d4 1A60     		str	r2, [r3]	@ D.4967, _68->CR
 343:cmsis_boot/system_stm32f0xx.c **** 
 473              		.loc 1 343 0
 474 00d6 C046     		nop
ARM GAS  /tmp/ccxDPtyO.s 			page 16


 475              	.L24:
 343:cmsis_boot/system_stm32f0xx.c **** 
 476              		.loc 1 343 0 is_stmt 0 discriminator 1
 477 00d8 234B     		ldr	r3, .L28	@ D.4966,
 478 00da 1B68     		ldr	r3, [r3]	@ D.4967, _73->CR
 479 00dc 0222     		movs	r2, #2	@ tmp219,
 480 00de 1340     		ands	r3, r2	@ D.4967, tmp219
 481 00e0 FAD0     		beq	.L24	@,
 346:cmsis_boot/system_stm32f0xx.c **** 
 482              		.loc 1 346 0 is_stmt 1
 483 00e2 224B     		ldr	r3, .L28+4	@ D.4968,
 484 00e4 1122     		movs	r2, #17	@ tmp220,
 485 00e6 1A60     		str	r2, [r3]	@ tmp220, _76->ACR
 349:cmsis_boot/system_stm32f0xx.c **** 
 486              		.loc 1 349 0
 487 00e8 1F4B     		ldr	r3, .L28	@ D.4966,
 488 00ea 1F4A     		ldr	r2, .L28	@ D.4966,
 489 00ec 5268     		ldr	r2, [r2, #4]	@ D.4967, _79->CFGR
 490 00ee 5A60     		str	r2, [r3, #4]	@ D.4967, _78->CFGR
 352:cmsis_boot/system_stm32f0xx.c **** 
 491              		.loc 1 352 0
 492 00f0 1D4B     		ldr	r3, .L28	@ D.4966,
 493 00f2 1D4A     		ldr	r2, .L28	@ D.4966,
 494 00f4 5268     		ldr	r2, [r2, #4]	@ D.4967, _83->CFGR
 495 00f6 5A60     		str	r2, [r3, #4]	@ D.4967, _82->CFGR
 355:cmsis_boot/system_stm32f0xx.c **** 
 496              		.loc 1 355 0
 497 00f8 1B4B     		ldr	r3, .L28	@ D.4966,
 498 00fa 1B4A     		ldr	r2, .L28	@ D.4966,
 499 00fc 5268     		ldr	r2, [r2, #4]	@ D.4967, _87->CFGR
 500 00fe 1D49     		ldr	r1, .L28+12	@ tmp221,
 501 0100 0A40     		ands	r2, r1	@ D.4967, tmp221
 502 0102 5A60     		str	r2, [r3, #4]	@ D.4967, _86->CFGR
 357:cmsis_boot/system_stm32f0xx.c **** 	  RCC->CFGR |= 0x00280000;  //PLL mult x12
 503              		.loc 1 357 0
 504 0104 184B     		ldr	r3, .L28	@ D.4966,
 505 0106 184A     		ldr	r2, .L28	@ D.4966,
 506 0108 5268     		ldr	r2, [r2, #4]	@ D.4967, _92->CFGR
 507 010a 1B49     		ldr	r1, .L28+16	@ tmp222,
 508 010c 0A40     		ands	r2, r1	@ D.4967, tmp222
 509 010e 5A60     		str	r2, [r3, #4]	@ D.4967, _91->CFGR
 358:cmsis_boot/system_stm32f0xx.c **** 
 510              		.loc 1 358 0
 511 0110 154B     		ldr	r3, .L28	@ D.4966,
 512 0112 154A     		ldr	r2, .L28	@ D.4966,
 513 0114 5268     		ldr	r2, [r2, #4]	@ D.4967, _97->CFGR
 514 0116 A021     		movs	r1, #160	@ tmp230,
 515 0118 8903     		lsls	r1, r1, #14	@ tmp223, tmp230,
 516 011a 0A43     		orrs	r2, r1	@ D.4967, tmp223
 517 011c 5A60     		str	r2, [r3, #4]	@ D.4967, _96->CFGR
 361:cmsis_boot/system_stm32f0xx.c **** 
 518              		.loc 1 361 0
 519 011e 124B     		ldr	r3, .L28	@ D.4966,
 520 0120 114A     		ldr	r2, .L28	@ D.4966,
 521 0122 1268     		ldr	r2, [r2]	@ D.4967, _102->CR
 522 0124 8021     		movs	r1, #128	@ tmp231,
 523 0126 4904     		lsls	r1, r1, #17	@ tmp224, tmp231,
ARM GAS  /tmp/ccxDPtyO.s 			page 17


 524 0128 0A43     		orrs	r2, r1	@ D.4967, tmp224
 525 012a 1A60     		str	r2, [r3]	@ D.4967, _101->CR
 364:cmsis_boot/system_stm32f0xx.c **** 	  {
 526              		.loc 1 364 0
 527 012c C046     		nop
 528              	.L25:
 364:cmsis_boot/system_stm32f0xx.c **** 	  {
 529              		.loc 1 364 0 is_stmt 0 discriminator 1
 530 012e 0E4B     		ldr	r3, .L28	@ D.4966,
 531 0130 1A68     		ldr	r2, [r3]	@ D.4967, _106->CR
 532 0132 8023     		movs	r3, #128	@ tmp229,
 533 0134 9B04     		lsls	r3, r3, #18	@ tmp225, tmp229,
 534 0136 1340     		ands	r3, r2	@ D.4967, D.4967
 535 0138 F9D0     		beq	.L25	@,
 369:cmsis_boot/system_stm32f0xx.c **** 	  RCC->CFGR |= (uint32_t)RCC_CFGR_SW_PLL;
 536              		.loc 1 369 0 is_stmt 1
 537 013a 0B4B     		ldr	r3, .L28	@ D.4966,
 538 013c 0A4A     		ldr	r2, .L28	@ D.4966,
 539 013e 5268     		ldr	r2, [r2, #4]	@ D.4967, _110->CFGR
 540 0140 0321     		movs	r1, #3	@ tmp226,
 541 0142 8A43     		bics	r2, r1	@ D.4967, tmp226
 542 0144 5A60     		str	r2, [r3, #4]	@ D.4967, _109->CFGR
 370:cmsis_boot/system_stm32f0xx.c **** 
 543              		.loc 1 370 0
 544 0146 084B     		ldr	r3, .L28	@ D.4966,
 545 0148 074A     		ldr	r2, .L28	@ D.4966,
 546 014a 5268     		ldr	r2, [r2, #4]	@ D.4967, _115->CFGR
 547 014c 0221     		movs	r1, #2	@ tmp227,
 548 014e 0A43     		orrs	r2, r1	@ D.4967, tmp227
 549 0150 5A60     		str	r2, [r3, #4]	@ D.4967, _114->CFGR
 373:cmsis_boot/system_stm32f0xx.c **** 	  {
 550              		.loc 1 373 0
 551 0152 C046     		nop
 552              	.L26:
 373:cmsis_boot/system_stm32f0xx.c **** 	  {
 553              		.loc 1 373 0 is_stmt 0 discriminator 1
 554 0154 044B     		ldr	r3, .L28	@ D.4966,
 555 0156 5B68     		ldr	r3, [r3, #4]	@ D.4967, _119->CFGR
 556 0158 0C22     		movs	r2, #12	@ tmp228,
 557 015a 1340     		ands	r3, r2	@ D.4967, tmp228
 558 015c 082B     		cmp	r3, #8	@ D.4967,
 559 015e F9D1     		bne	.L26	@,
 560              	.L27:
 561              		.loc 1 377 0 is_stmt 1
 562 0160 C046     		nop
 563 0162 02B0     		add	sp, sp, #8	@,,
 564              		@ sp needed	@
 565 0164 7047     		bx	lr
 566              	.L29:
 567 0166 C046     		.align	2
 568              	.L28:
 569 0168 00100240 		.word	1073876992
 570 016c 00200240 		.word	1073881088
 571 0170 FF7FC0FF 		.word	-4161537
 572 0174 FFFFFEFF 		.word	-65537
 573 0178 FFFFC3FF 		.word	-3932161
 574              		.cfi_endproc
ARM GAS  /tmp/ccxDPtyO.s 			page 18


 575              	.LFE22:
 576              		.size	SetSysClock, .-SetSysClock
 577              		.section	.text.SetSysClockInternalRC,"ax",%progbits
 578              		.align	2
 579              		.global	SetSysClockInternalRC
 580              		.code	16
 581              		.thumb_func
 582              		.type	SetSysClockInternalRC, %function
 583              	SetSysClockInternalRC:
 584              	.LFB23:
 378:cmsis_boot/system_stm32f0xx.c **** 
 379:cmsis_boot/system_stm32f0xx.c **** void SetSysClockInternalRC (void)
 380:cmsis_boot/system_stm32f0xx.c **** {
 585              		.loc 1 380 0
 586              		.cfi_startproc
 381:cmsis_boot/system_stm32f0xx.c ****  //--- Enable HSI clock ---//
 382:cmsis_boot/system_stm32f0xx.c **** 	RCC->CR |= 0x00000001;
 587              		.loc 1 382 0
 588 0000 264B     		ldr	r3, .L34	@ D.4969,
 589 0002 264A     		ldr	r2, .L34	@ D.4969,
 590 0004 1268     		ldr	r2, [r2]	@ D.4970, _2->CR
 591 0006 0121     		movs	r1, #1	@ tmp154,
 592 0008 0A43     		orrs	r2, r1	@ D.4970, tmp154
 593 000a 1A60     		str	r2, [r3]	@ D.4970, _1->CR
 383:cmsis_boot/system_stm32f0xx.c **** 
 384:cmsis_boot/system_stm32f0xx.c **** 	//--- Wait for PLL ready ---//
 385:cmsis_boot/system_stm32f0xx.c **** 	while (!(RCC->CR & 0x00000002));
 594              		.loc 1 385 0
 595 000c C046     		nop
 596              	.L31:
 597              		.loc 1 385 0 is_stmt 0 discriminator 1
 598 000e 234B     		ldr	r3, .L34	@ D.4969,
 599 0010 1B68     		ldr	r3, [r3]	@ D.4970, _7->CR
 600 0012 0222     		movs	r2, #2	@ tmp155,
 601 0014 1340     		ands	r3, r2	@ D.4970, tmp155
 602 0016 FAD0     		beq	.L31	@,
 386:cmsis_boot/system_stm32f0xx.c **** 
 387:cmsis_boot/system_stm32f0xx.c **** 	/* Enable Prefetch Buffer and set Flash Latency */
 388:cmsis_boot/system_stm32f0xx.c **** 	FLASH->ACR = FLASH_ACR_PRFTBE | FLASH_ACR_LATENCY;
 603              		.loc 1 388 0 is_stmt 1
 604 0018 214B     		ldr	r3, .L34+4	@ D.4971,
 605 001a 1122     		movs	r2, #17	@ tmp156,
 606 001c 1A60     		str	r2, [r3]	@ tmp156, _10->ACR
 389:cmsis_boot/system_stm32f0xx.c **** 
 390:cmsis_boot/system_stm32f0xx.c **** 	/* HCLK = SYSCLK */
 391:cmsis_boot/system_stm32f0xx.c **** 	RCC->CFGR |= (uint32_t)RCC_CFGR_HPRE_DIV1;
 607              		.loc 1 391 0
 608 001e 1F4B     		ldr	r3, .L34	@ D.4969,
 609 0020 1E4A     		ldr	r2, .L34	@ D.4969,
 610 0022 5268     		ldr	r2, [r2, #4]	@ D.4970, _13->CFGR
 611 0024 5A60     		str	r2, [r3, #4]	@ D.4970, _12->CFGR
 392:cmsis_boot/system_stm32f0xx.c **** 
 393:cmsis_boot/system_stm32f0xx.c **** 	/* PCLK = HCLK */
 394:cmsis_boot/system_stm32f0xx.c **** 	RCC->CFGR |= (uint32_t)RCC_CFGR_PPRE_DIV1;
 612              		.loc 1 394 0
 613 0026 1D4B     		ldr	r3, .L34	@ D.4969,
 614 0028 1C4A     		ldr	r2, .L34	@ D.4969,
ARM GAS  /tmp/ccxDPtyO.s 			page 19


 615 002a 5268     		ldr	r2, [r2, #4]	@ D.4970, _17->CFGR
 616 002c 5A60     		str	r2, [r3, #4]	@ D.4970, _16->CFGR
 395:cmsis_boot/system_stm32f0xx.c **** 
 396:cmsis_boot/system_stm32f0xx.c **** 	/* PLL configuration = HSI/2 * 12 = 48 MHz */
 397:cmsis_boot/system_stm32f0xx.c **** 	RCC->CFGR &= ~0x00010000; //PLL in HSI/2
 617              		.loc 1 397 0
 618 002e 1B4B     		ldr	r3, .L34	@ D.4969,
 619 0030 1A4A     		ldr	r2, .L34	@ D.4969,
 620 0032 5268     		ldr	r2, [r2, #4]	@ D.4970, _21->CFGR
 621 0034 1B49     		ldr	r1, .L34+8	@ tmp157,
 622 0036 0A40     		ands	r2, r1	@ D.4970, tmp157
 623 0038 5A60     		str	r2, [r3, #4]	@ D.4970, _20->CFGR
 398:cmsis_boot/system_stm32f0xx.c **** 
 399:cmsis_boot/system_stm32f0xx.c **** 	RCC->CFGR &= ~0x003C0000;
 624              		.loc 1 399 0
 625 003a 184B     		ldr	r3, .L34	@ D.4969,
 626 003c 174A     		ldr	r2, .L34	@ D.4969,
 627 003e 5268     		ldr	r2, [r2, #4]	@ D.4970, _26->CFGR
 628 0040 1949     		ldr	r1, .L34+12	@ tmp158,
 629 0042 0A40     		ands	r2, r1	@ D.4970, tmp158
 630 0044 5A60     		str	r2, [r3, #4]	@ D.4970, _25->CFGR
 400:cmsis_boot/system_stm32f0xx.c **** 	RCC->CFGR |= 0x00280000;  //PLL mult x12
 631              		.loc 1 400 0
 632 0046 154B     		ldr	r3, .L34	@ D.4969,
 633 0048 144A     		ldr	r2, .L34	@ D.4969,
 634 004a 5268     		ldr	r2, [r2, #4]	@ D.4970, _31->CFGR
 635 004c A021     		movs	r1, #160	@ tmp166,
 636 004e 8903     		lsls	r1, r1, #14	@ tmp159, tmp166,
 637 0050 0A43     		orrs	r2, r1	@ D.4970, tmp159
 638 0052 5A60     		str	r2, [r3, #4]	@ D.4970, _30->CFGR
 401:cmsis_boot/system_stm32f0xx.c **** 
 402:cmsis_boot/system_stm32f0xx.c **** 	/* Enable PLL */
 403:cmsis_boot/system_stm32f0xx.c **** 	RCC->CR |= RCC_CR_PLLON;
 639              		.loc 1 403 0
 640 0054 114B     		ldr	r3, .L34	@ D.4969,
 641 0056 114A     		ldr	r2, .L34	@ D.4969,
 642 0058 1268     		ldr	r2, [r2]	@ D.4970, _36->CR
 643 005a 8021     		movs	r1, #128	@ tmp167,
 644 005c 4904     		lsls	r1, r1, #17	@ tmp160, tmp167,
 645 005e 0A43     		orrs	r2, r1	@ D.4970, tmp160
 646 0060 1A60     		str	r2, [r3]	@ D.4970, _35->CR
 404:cmsis_boot/system_stm32f0xx.c **** 
 405:cmsis_boot/system_stm32f0xx.c **** 	/* Wait till PLL is ready */
 406:cmsis_boot/system_stm32f0xx.c **** 	while((RCC->CR & RCC_CR_PLLRDY) == 0)
 647              		.loc 1 406 0
 648 0062 C046     		nop
 649              	.L32:
 650              		.loc 1 406 0 is_stmt 0 discriminator 1
 651 0064 0D4B     		ldr	r3, .L34	@ D.4969,
 652 0066 1A68     		ldr	r2, [r3]	@ D.4970, _40->CR
 653 0068 8023     		movs	r3, #128	@ tmp165,
 654 006a 9B04     		lsls	r3, r3, #18	@ tmp161, tmp165,
 655 006c 1340     		ands	r3, r2	@ D.4970, D.4970
 656 006e F9D0     		beq	.L32	@,
 407:cmsis_boot/system_stm32f0xx.c **** 	{
 408:cmsis_boot/system_stm32f0xx.c **** 	}
 409:cmsis_boot/system_stm32f0xx.c **** 
ARM GAS  /tmp/ccxDPtyO.s 			page 20


 410:cmsis_boot/system_stm32f0xx.c **** 	/* Select PLL as system clock source */
 411:cmsis_boot/system_stm32f0xx.c **** 	RCC->CFGR &= (uint32_t)((uint32_t)~(RCC_CFGR_SW));
 657              		.loc 1 411 0 is_stmt 1
 658 0070 0A4B     		ldr	r3, .L34	@ D.4969,
 659 0072 0A4A     		ldr	r2, .L34	@ D.4969,
 660 0074 5268     		ldr	r2, [r2, #4]	@ D.4970, _44->CFGR
 661 0076 0321     		movs	r1, #3	@ tmp162,
 662 0078 8A43     		bics	r2, r1	@ D.4970, tmp162
 663 007a 5A60     		str	r2, [r3, #4]	@ D.4970, _43->CFGR
 412:cmsis_boot/system_stm32f0xx.c **** 	RCC->CFGR |= (uint32_t)RCC_CFGR_SW_PLL;
 664              		.loc 1 412 0
 665 007c 074B     		ldr	r3, .L34	@ D.4969,
 666 007e 074A     		ldr	r2, .L34	@ D.4969,
 667 0080 5268     		ldr	r2, [r2, #4]	@ D.4970, _49->CFGR
 668 0082 0221     		movs	r1, #2	@ tmp163,
 669 0084 0A43     		orrs	r2, r1	@ D.4970, tmp163
 670 0086 5A60     		str	r2, [r3, #4]	@ D.4970, _48->CFGR
 413:cmsis_boot/system_stm32f0xx.c **** 
 414:cmsis_boot/system_stm32f0xx.c **** 	/* Wait till PLL is used as system clock source */
 415:cmsis_boot/system_stm32f0xx.c **** 	while ((RCC->CFGR & (uint32_t)RCC_CFGR_SWS) != (uint32_t)RCC_CFGR_SWS_PLL)
 671              		.loc 1 415 0
 672 0088 C046     		nop
 673              	.L33:
 674              		.loc 1 415 0 is_stmt 0 discriminator 1
 675 008a 044B     		ldr	r3, .L34	@ D.4969,
 676 008c 5B68     		ldr	r3, [r3, #4]	@ D.4970, _53->CFGR
 677 008e 0C22     		movs	r2, #12	@ tmp164,
 678 0090 1340     		ands	r3, r2	@ D.4970, tmp164
 679 0092 082B     		cmp	r3, #8	@ D.4970,
 680 0094 F9D1     		bne	.L33	@,
 416:cmsis_boot/system_stm32f0xx.c **** 	{
 417:cmsis_boot/system_stm32f0xx.c **** 	}
 418:cmsis_boot/system_stm32f0xx.c **** }
 681              		.loc 1 418 0 is_stmt 1
 682 0096 C046     		nop
 683              		@ sp needed	@
 684 0098 7047     		bx	lr
 685              	.L35:
 686 009a C046     		.align	2
 687              	.L34:
 688 009c 00100240 		.word	1073876992
 689 00a0 00200240 		.word	1073881088
 690 00a4 FFFFFEFF 		.word	-65537
 691 00a8 FFFFC3FF 		.word	-3932161
 692              		.cfi_endproc
 693              	.LFE23:
 694              		.size	SetSysClockInternalRC, .-SetSysClockInternalRC
 695              		.text
 696              	.Letext0:
 697              		.file 2 "/usr/local/sbin/gcc-arm-none-eabi-5_2-2015q4/arm-none-eabi/include/machine/_default_types
 698              		.file 3 "/usr/local/sbin/gcc-arm-none-eabi-5_2-2015q4/arm-none-eabi/include/sys/_stdint.h"
 699              		.file 4 "cmsis_boot/stm32f0xx.h"