ARM GAS  /tmp/ccWuZK3p.s 			page 1


   1              		.syntax unified
   2              		.cpu cortex-m0
   3              		.fpu softvfp
   4              		.eabi_attribute 20, 1	@ Tag_ABI_FP_denormal
   5              		.eabi_attribute 21, 1	@ Tag_ABI_FP_exceptions
   6              		.eabi_attribute 23, 3	@ Tag_ABI_FP_number_model
   7              		.eabi_attribute 24, 1	@ Tag_ABI_align8_needed
   8              		.eabi_attribute 25, 1	@ Tag_ABI_align8_preserved
   9              		.eabi_attribute 26, 1	@ Tag_ABI_enum_size
  10              		.eabi_attribute 30, 6	@ Tag_ABI_optimization_goals
  11              		.eabi_attribute 34, 0	@ Tag_CPU_unaligned_access
  12              		.eabi_attribute 18, 4	@ Tag_ABI_PCS_wchar_t
  13              		.file	"dma.c"
  14              	@ GNU C11 (GNU Tools for ARM Embedded Processors) version 5.2.1 20151202 (release) [ARM/embedded-5-
  15              	@	compiled by GNU C version 4.7.4, GMP version 4.3.2, MPFR version 2.4.2, MPC version 0.8.1
  16              	@ GGC heuristics: --param ggc-min-expand=100 --param ggc-min-heapsize=131072
  17              	@ options passed:  -I . -I ./src -I ./cmsis_boot -I ./cmsis_core
  18              	@ -imultilib armv6-m
  19              	@ -iprefix /usr/local/sbin/gcc-arm-none-eabi-5_2-2015q4/bin/../lib/gcc/arm-none-eabi/5.2.1/
  20              	@ -isysroot /usr/local/sbin/gcc-arm-none-eabi-5_2-2015q4/bin/../arm-none-eabi
  21              	@ -D__USES_INITFINI__ -D STM32F030 src/dma.c -mcpu=cortex-m0 -mthumb
  22              	@ -auxbase-strip src/dma.o -g -gdwarf-2 -O0 -Wall -fomit-frame-pointer
  23              	@ -fdata-sections -ffunction-sections -fverbose-asm
  24              	@ options enabled:  -faggressive-loop-optimizations -fauto-inc-dec
  25              	@ -fchkp-check-incomplete-type -fchkp-check-read -fchkp-check-write
  26              	@ -fchkp-instrument-calls -fchkp-narrow-bounds -fchkp-optimize
  27              	@ -fchkp-store-bounds -fchkp-use-static-bounds
  28              	@ -fchkp-use-static-const-bounds -fchkp-use-wrappers -fcommon
  29              	@ -fdata-sections -fdelete-null-pointer-checks -fdwarf2-cfi-asm
  30              	@ -fearly-inlining -feliminate-unused-debug-types -ffunction-cse
  31              	@ -ffunction-sections -fgcse-lm -fgnu-runtime -fgnu-unique -fident
  32              	@ -finline-atomics -fira-hoist-pressure -fira-share-save-slots
  33              	@ -fira-share-spill-slots -fivopts -fkeep-static-consts
  34              	@ -fleading-underscore -flifetime-dse -flto-odr-type-merging -fmath-errno
  35              	@ -fmerge-debug-strings -fomit-frame-pointer -fpeephole
  36              	@ -fprefetch-loop-arrays -freg-struct-return
  37              	@ -fsched-critical-path-heuristic -fsched-dep-count-heuristic
  38              	@ -fsched-group-heuristic -fsched-interblock -fsched-last-insn-heuristic
  39              	@ -fsched-rank-heuristic -fsched-spec -fsched-spec-insn-heuristic
  40              	@ -fsched-stalled-insns-dep -fsemantic-interposition -fshow-column
  41              	@ -fsigned-zeros -fsplit-ivs-in-unroller -fstdarg-opt
  42              	@ -fstrict-volatile-bitfields -fsync-libcalls -ftrapping-math
  43              	@ -ftree-coalesce-vars -ftree-cselim -ftree-forwprop -ftree-loop-if-convert
  44              	@ -ftree-loop-im -ftree-loop-ivcanon -ftree-loop-optimize
  45              	@ -ftree-parallelize-loops= -ftree-phiprop -ftree-reassoc -ftree-scev-cprop
  46              	@ -funit-at-a-time -fverbose-asm -fzero-initialized-in-bss -mlittle-endian
  47              	@ -mpic-data-is-text-relative -msched-prolog -mthumb
  48              	@ -mvectorize-with-neon-quad
  49              	
  50              		.text
  51              	.Ltext0:
  52              		.cfi_sections	.debug_frame
  53              		.section	.text.DMAConfig,"ax",%progbits
  54              		.align	2
  55              		.global	DMAConfig
  56              		.code	16
  57              		.thumb_func
ARM GAS  /tmp/ccWuZK3p.s 			page 2


  58              		.type	DMAConfig, %function
  59              	DMAConfig:
  60              	.LFB20:
  61              		.file 1 "src/dma.c"
   1:src/dma.c     **** //---------------------------------------------
   2:src/dma.c     **** // ##
   3:src/dma.c     **** // ## @Author: Med
   4:src/dma.c     **** // ## @Editor: Emacs - ggtags
   5:src/dma.c     **** // ## @TAGS:   Global
   6:src/dma.c     **** // ##
   7:src/dma.c     **** // #### DMA.C #################################
   8:src/dma.c     **** //---------------------------------------------
   9:src/dma.c     **** 
  10:src/dma.c     **** #include "dma.h"
  11:src/dma.c     **** #include "stm32f0xx.h"
  12:src/dma.c     **** 
  13:src/dma.c     **** #include "adc.h"
  14:src/dma.c     **** 
  15:src/dma.c     **** /* Externals variables ---------------------------------------------------------*/
  16:src/dma.c     **** extern volatile unsigned short adc_ch [];
  17:src/dma.c     **** 
  18:src/dma.c     **** /* Global variables ---------------------------------------------------------*/
  19:src/dma.c     **** 
  20:src/dma.c     **** 
  21:src/dma.c     **** /* Module Definitions ---------------------------------------------------------*/
  22:src/dma.c     **** 
  23:src/dma.c     **** 
  24:src/dma.c     **** /* Module functions ---------------------------------------------------------*/
  25:src/dma.c     **** void DMAConfig(void)
  26:src/dma.c     **** {
  62              		.loc 1 26 0
  63              		.cfi_startproc
  27:src/dma.c     ****     /* DMA1 clock enable */
  28:src/dma.c     ****     if (!RCC_DMA_CLK)
  64              		.loc 1 28 0
  65 0000 124B     		ldr	r3, .L3	@ D.4835,
  66 0002 5B69     		ldr	r3, [r3, #20]	@ D.4836, _2->AHBENR
  67 0004 0122     		movs	r2, #1	@ tmp130,
  68 0006 1340     		ands	r3, r2	@ D.4836, tmp130
  69 0008 05D1     		bne	.L2	@,
  29:src/dma.c     ****         RCC_DMA_CLK_ON;
  70              		.loc 1 29 0
  71 000a 104B     		ldr	r3, .L3	@ D.4835,
  72 000c 0F4A     		ldr	r2, .L3	@ D.4835,
  73 000e 5269     		ldr	r2, [r2, #20]	@ D.4836, _7->AHBENR
  74 0010 0121     		movs	r1, #1	@ tmp131,
  75 0012 0A43     		orrs	r2, r1	@ D.4836, tmp131
  76 0014 5A61     		str	r2, [r3, #20]	@ D.4836, _6->AHBENR
  77              	.L2:
  30:src/dma.c     **** 
  31:src/dma.c     ****     //Configuro el control del DMA CH1
  32:src/dma.c     ****     DMA1_Channel1->CCR = 0;
  78              		.loc 1 32 0
  79 0016 0E4B     		ldr	r3, .L3+4	@ D.4837,
  80 0018 0022     		movs	r2, #0	@ tmp132,
  81 001a 1A60     		str	r2, [r3]	@ tmp132, _11->CCR
  33:src/dma.c     ****     //priority very high
ARM GAS  /tmp/ccWuZK3p.s 			page 3


  34:src/dma.c     ****     //memory halfword
  35:src/dma.c     ****     //peripheral halfword
  36:src/dma.c     ****     //increment memory
  37:src/dma.c     ****     DMA1_Channel1->CCR |= DMA_CCR_PL | DMA_CCR_MSIZE_0 | DMA_CCR_PSIZE_0 | DMA_CCR_MINC;
  82              		.loc 1 37 0
  83 001c 0C4B     		ldr	r3, .L3+4	@ D.4837,
  84 001e 0C4A     		ldr	r2, .L3+4	@ D.4837,
  85 0020 1268     		ldr	r2, [r2]	@ D.4836, _14->CCR
  86 0022 D621     		movs	r1, #214	@ tmp137,
  87 0024 8901     		lsls	r1, r1, #6	@ tmp133, tmp137,
  88 0026 0A43     		orrs	r2, r1	@ D.4836, tmp133
  89 0028 1A60     		str	r2, [r3]	@ D.4836, _13->CCR
  38:src/dma.c     ****     //DMA1_Channel1->CCR |= DMA_Mode_Circular | DMA_CCR_TCIE;
  39:src/dma.c     ****     //cicular mode
  40:src/dma.c     ****     DMA1_Channel1->CCR |= DMA_CCR_CIRC;
  90              		.loc 1 40 0
  91 002a 094B     		ldr	r3, .L3+4	@ D.4837,
  92 002c 084A     		ldr	r2, .L3+4	@ D.4837,
  93 002e 1268     		ldr	r2, [r2]	@ D.4836, _19->CCR
  94 0030 2021     		movs	r1, #32	@ tmp134,
  95 0032 0A43     		orrs	r2, r1	@ D.4836, tmp134
  96 0034 1A60     		str	r2, [r3]	@ D.4836, _18->CCR
  41:src/dma.c     **** 
  42:src/dma.c     ****     //Tamaño del buffer a transmitir
  43:src/dma.c     ****     DMA1_Channel1->CNDTR = ADC_CHANNEL_QUANTITY;
  97              		.loc 1 43 0
  98 0036 064B     		ldr	r3, .L3+4	@ D.4837,
  99 0038 0522     		movs	r2, #5	@ tmp135,
 100 003a 5A60     		str	r2, [r3, #4]	@ tmp135, _23->CNDTR
  44:src/dma.c     **** 
  45:src/dma.c     ****     //Address del periferico
  46:src/dma.c     ****     DMA1_Channel1->CPAR = (uint32_t) &ADC1->DR;
 101              		.loc 1 46 0
 102 003c 044B     		ldr	r3, .L3+4	@ D.4837,
 103 003e 054A     		ldr	r2, .L3+8	@ tmp136,
 104 0040 9A60     		str	r2, [r3, #8]	@ tmp136, _25->CPAR
  47:src/dma.c     **** 
  48:src/dma.c     ****     //Address en memoria
  49:src/dma.c     ****     DMA1_Channel1->CMAR = (uint32_t) &adc_ch[0];
 105              		.loc 1 49 0
 106 0042 034B     		ldr	r3, .L3+4	@ D.4837,
 107 0044 044A     		ldr	r2, .L3+12	@ D.4836,
 108 0046 DA60     		str	r2, [r3, #12]	@ D.4836, _27->CMAR
  50:src/dma.c     **** 
  51:src/dma.c     ****     //Enable
  52:src/dma.c     ****     //DMA1_Channel1->CCR |= DMA_CCR_EN;
  53:src/dma.c     **** #ifdef DMA_WITH_INTERRUPT
  54:src/dma.c     ****     NVIC_EnableIRQ(DMA1_Channel1_IRQn);
  55:src/dma.c     ****     NVIC_SetPriority(DMA1_Channel1_IRQn, 5);
  56:src/dma.c     **** #endif
  57:src/dma.c     **** }
 109              		.loc 1 57 0
 110 0048 C046     		nop
 111              		@ sp needed	@
 112 004a 7047     		bx	lr
 113              	.L4:
 114              		.align	2
ARM GAS  /tmp/ccWuZK3p.s 			page 4


 115              	.L3:
 116 004c 00100240 		.word	1073876992
 117 0050 08000240 		.word	1073872904
 118 0054 40240140 		.word	1073816640
 119 0058 00000000 		.word	adc_ch
 120              		.cfi_endproc
 121              	.LFE20:
 122              		.size	DMAConfig, .-DMAConfig
 123              		.section	.text.DMAEnableInterrupt,"ax",%progbits
 124              		.align	2
 125              		.global	DMAEnableInterrupt
 126              		.code	16
 127              		.thumb_func
 128              		.type	DMAEnableInterrupt, %function
 129              	DMAEnableInterrupt:
 130              	.LFB21:
  58:src/dma.c     **** 
  59:src/dma.c     **** void DMAEnableInterrupt (void)
  60:src/dma.c     **** {
 131              		.loc 1 60 0
 132              		.cfi_startproc
  61:src/dma.c     ****     DMA1_Channel1->CCR |= DMA_CCR_TCIE;
 133              		.loc 1 61 0
 134 0000 034B     		ldr	r3, .L6	@ D.4838,
 135 0002 034A     		ldr	r2, .L6	@ D.4838,
 136 0004 1268     		ldr	r2, [r2]	@ D.4839, _2->CCR
 137 0006 0221     		movs	r1, #2	@ tmp114,
 138 0008 0A43     		orrs	r2, r1	@ D.4839, tmp114
 139 000a 1A60     		str	r2, [r3]	@ D.4839, _1->CCR
  62:src/dma.c     **** }
 140              		.loc 1 62 0
 141 000c C046     		nop
 142              		@ sp needed	@
 143 000e 7047     		bx	lr
 144              	.L7:
 145              		.align	2
 146              	.L6:
 147 0010 08000240 		.word	1073872904
 148              		.cfi_endproc
 149              	.LFE21:
 150              		.size	DMAEnableInterrupt, .-DMAEnableInterrupt
 151              		.section	.text.DMADisableInterrupt,"ax",%progbits
 152              		.align	2
 153              		.global	DMADisableInterrupt
 154              		.code	16
 155              		.thumb_func
 156              		.type	DMADisableInterrupt, %function
 157              	DMADisableInterrupt:
 158              	.LFB22:
  63:src/dma.c     **** 
  64:src/dma.c     **** void DMADisableInterrupt (void)
  65:src/dma.c     **** {
 159              		.loc 1 65 0
 160              		.cfi_startproc
  66:src/dma.c     ****     DMA1_Channel1->CCR &= ~DMA_CCR_TCIE;
 161              		.loc 1 66 0
 162 0000 034B     		ldr	r3, .L9	@ D.4840,
ARM GAS  /tmp/ccWuZK3p.s 			page 5


 163 0002 034A     		ldr	r2, .L9	@ D.4840,
 164 0004 1268     		ldr	r2, [r2]	@ D.4841, _2->CCR
 165 0006 0221     		movs	r1, #2	@ tmp114,
 166 0008 8A43     		bics	r2, r1	@ D.4841, tmp114
 167 000a 1A60     		str	r2, [r3]	@ D.4841, _1->CCR
  67:src/dma.c     **** }
 168              		.loc 1 67 0
 169 000c C046     		nop
 170              		@ sp needed	@
 171 000e 7047     		bx	lr
 172              	.L10:
 173              		.align	2
 174              	.L9:
 175 0010 08000240 		.word	1073872904
 176              		.cfi_endproc
 177              	.LFE22:
 178              		.size	DMADisableInterrupt, .-DMADisableInterrupt
 179              		.text
 180              	.Letext0:
 181              		.file 2 "/usr/local/sbin/gcc-arm-none-eabi-5_2-2015q4/arm-none-eabi/include/machine/_default_types
 182              		.file 3 "/usr/local/sbin/gcc-arm-none-eabi-5_2-2015q4/arm-none-eabi/include/sys/_stdint.h"
 183              		.file 4 "./cmsis_boot/stm32f0xx.h"
 184              		.section	.debug_info,"",%progbits
 185              	.Ldebug_info0:
 186 0000 09030000 		.4byte	0x309
 187 0004 0200     		.2byte	0x2
 188 0006 00000000 		.4byte	.Ldebug_abbrev0
 189 000a 04       		.byte	0x4
 190 000b 01       		.uleb128 0x1
 191 000c 5C010000 		.4byte	.LASF38
 192 0010 0C       		.byte	0xc
 193 0011 52010000 		.4byte	.LASF39
 194 0015 00000000 		.4byte	.LASF40
 195 0019 00000000 		.4byte	.Ldebug_ranges0+0
 196 001d 00000000 		.4byte	0
 197 0021 00000000 		.4byte	0
 198 0025 00000000 		.4byte	.Ldebug_line0
 199 0029 02       		.uleb128 0x2
 200 002a 01       		.byte	0x1
 201 002b 06       		.byte	0x6
 202 002c 6E020000 		.4byte	.LASF0
 203 0030 02       		.uleb128 0x2
 204 0031 01       		.byte	0x1
 205 0032 08       		.byte	0x8
 206 0033 A7000000 		.4byte	.LASF1
 207 0037 02       		.uleb128 0x2
 208 0038 02       		.byte	0x2
 209 0039 05       		.byte	0x5
 210 003a 3A020000 		.4byte	.LASF2
 211 003e 02       		.uleb128 0x2
 212 003f 02       		.byte	0x2
 213 0040 07       		.byte	0x7
 214 0041 D8000000 		.4byte	.LASF3
 215 0045 02       		.uleb128 0x2
 216 0046 04       		.byte	0x4
 217 0047 05       		.byte	0x5
 218 0048 59020000 		.4byte	.LASF4
ARM GAS  /tmp/ccWuZK3p.s 			page 6


 219 004c 03       		.uleb128 0x3
 220 004d F8000000 		.4byte	.LASF9
 221 0051 02       		.byte	0x2
 222 0052 41       		.byte	0x41
 223 0053 57000000 		.4byte	0x57
 224 0057 02       		.uleb128 0x2
 225 0058 04       		.byte	0x4
 226 0059 07       		.byte	0x7
 227 005a C0000000 		.4byte	.LASF5
 228 005e 02       		.uleb128 0x2
 229 005f 08       		.byte	0x8
 230 0060 05       		.byte	0x5
 231 0061 19020000 		.4byte	.LASF6
 232 0065 02       		.uleb128 0x2
 233 0066 08       		.byte	0x8
 234 0067 07       		.byte	0x7
 235 0068 36010000 		.4byte	.LASF7
 236 006c 04       		.uleb128 0x4
 237 006d 04       		.byte	0x4
 238 006e 05       		.byte	0x5
 239 006f 696E7400 		.ascii	"int\000"
 240 0073 02       		.uleb128 0x2
 241 0074 04       		.byte	0x4
 242 0075 07       		.byte	0x7
 243 0076 1F010000 		.4byte	.LASF8
 244 007a 03       		.uleb128 0x3
 245 007b 50020000 		.4byte	.LASF10
 246 007f 03       		.byte	0x3
 247 0080 20       		.byte	0x20
 248 0081 4C000000 		.4byte	0x4c
 249 0085 02       		.uleb128 0x2
 250 0086 04       		.byte	0x4
 251 0087 07       		.byte	0x7
 252 0088 10020000 		.4byte	.LASF11
 253 008c 05       		.uleb128 0x5
 254 008d 7A000000 		.4byte	0x7a
 255 0091 06       		.uleb128 0x6
 256 0092 44       		.byte	0x44
 257 0093 04       		.byte	0x4
 258 0094 7C01     		.2byte	0x17c
 259 0096 5B010000 		.4byte	0x15b
 260 009a 07       		.uleb128 0x7
 261 009b 49535200 		.ascii	"ISR\000"
 262 009f 04       		.byte	0x4
 263 00a0 7E01     		.2byte	0x17e
 264 00a2 8C000000 		.4byte	0x8c
 265 00a6 02       		.byte	0x2
 266 00a7 23       		.byte	0x23
 267 00a8 00       		.uleb128 0
 268 00a9 07       		.uleb128 0x7
 269 00aa 49455200 		.ascii	"IER\000"
 270 00ae 04       		.byte	0x4
 271 00af 7F01     		.2byte	0x17f
 272 00b1 8C000000 		.4byte	0x8c
 273 00b5 02       		.byte	0x2
 274 00b6 23       		.byte	0x23
 275 00b7 04       		.uleb128 0x4
ARM GAS  /tmp/ccWuZK3p.s 			page 7


 276 00b8 07       		.uleb128 0x7
 277 00b9 435200   		.ascii	"CR\000"
 278 00bc 04       		.byte	0x4
 279 00bd 8001     		.2byte	0x180
 280 00bf 8C000000 		.4byte	0x8c
 281 00c3 02       		.byte	0x2
 282 00c4 23       		.byte	0x23
 283 00c5 08       		.uleb128 0x8
 284 00c6 08       		.uleb128 0x8
 285 00c7 98000000 		.4byte	.LASF12
 286 00cb 04       		.byte	0x4
 287 00cc 8101     		.2byte	0x181
 288 00ce 8C000000 		.4byte	0x8c
 289 00d2 02       		.byte	0x2
 290 00d3 23       		.byte	0x23
 291 00d4 0C       		.uleb128 0xc
 292 00d5 08       		.uleb128 0x8
 293 00d6 48000000 		.4byte	.LASF13
 294 00da 04       		.byte	0x4
 295 00db 8201     		.2byte	0x182
 296 00dd 8C000000 		.4byte	0x8c
 297 00e1 02       		.byte	0x2
 298 00e2 23       		.byte	0x23
 299 00e3 10       		.uleb128 0x10
 300 00e4 08       		.uleb128 0x8
 301 00e5 4D010000 		.4byte	.LASF14
 302 00e9 04       		.byte	0x4
 303 00ea 8301     		.2byte	0x183
 304 00ec 8C000000 		.4byte	0x8c
 305 00f0 02       		.byte	0x2
 306 00f1 23       		.byte	0x23
 307 00f2 14       		.uleb128 0x14
 308 00f3 08       		.uleb128 0x8
 309 00f4 69000000 		.4byte	.LASF15
 310 00f8 04       		.byte	0x4
 311 00f9 8401     		.2byte	0x184
 312 00fb 7A000000 		.4byte	0x7a
 313 00ff 02       		.byte	0x2
 314 0100 23       		.byte	0x23
 315 0101 18       		.uleb128 0x18
 316 0102 08       		.uleb128 0x8
 317 0103 73000000 		.4byte	.LASF16
 318 0107 04       		.byte	0x4
 319 0108 8501     		.2byte	0x185
 320 010a 7A000000 		.4byte	0x7a
 321 010e 02       		.byte	0x2
 322 010f 23       		.byte	0x23
 323 0110 1C       		.uleb128 0x1c
 324 0111 07       		.uleb128 0x7
 325 0112 545200   		.ascii	"TR\000"
 326 0115 04       		.byte	0x4
 327 0116 8601     		.2byte	0x186
 328 0118 8C000000 		.4byte	0x8c
 329 011c 02       		.byte	0x2
 330 011d 23       		.byte	0x23
 331 011e 20       		.uleb128 0x20
 332 011f 08       		.uleb128 0x8
ARM GAS  /tmp/ccWuZK3p.s 			page 8


 333 0120 7D000000 		.4byte	.LASF17
 334 0124 04       		.byte	0x4
 335 0125 8701     		.2byte	0x187
 336 0127 7A000000 		.4byte	0x7a
 337 012b 02       		.byte	0x2
 338 012c 23       		.byte	0x23
 339 012d 24       		.uleb128 0x24
 340 012e 08       		.uleb128 0x8
 341 012f 62000000 		.4byte	.LASF18
 342 0133 04       		.byte	0x4
 343 0134 8801     		.2byte	0x188
 344 0136 8C000000 		.4byte	0x8c
 345 013a 02       		.byte	0x2
 346 013b 23       		.byte	0x23
 347 013c 28       		.uleb128 0x28
 348 013d 08       		.uleb128 0x8
 349 013e 87000000 		.4byte	.LASF19
 350 0142 04       		.byte	0x4
 351 0143 8901     		.2byte	0x189
 352 0145 5B010000 		.4byte	0x15b
 353 0149 02       		.byte	0x2
 354 014a 23       		.byte	0x23
 355 014b 2C       		.uleb128 0x2c
 356 014c 07       		.uleb128 0x7
 357 014d 445200   		.ascii	"DR\000"
 358 0150 04       		.byte	0x4
 359 0151 8A01     		.2byte	0x18a
 360 0153 8C000000 		.4byte	0x8c
 361 0157 02       		.byte	0x2
 362 0158 23       		.byte	0x23
 363 0159 40       		.uleb128 0x40
 364 015a 00       		.byte	0
 365 015b 09       		.uleb128 0x9
 366 015c 7A000000 		.4byte	0x7a
 367 0160 6B010000 		.4byte	0x16b
 368 0164 0A       		.uleb128 0xa
 369 0165 85000000 		.4byte	0x85
 370 0169 04       		.byte	0x4
 371 016a 00       		.byte	0
 372 016b 0B       		.uleb128 0xb
 373 016c 62020000 		.4byte	.LASF20
 374 0170 04       		.byte	0x4
 375 0171 8B01     		.2byte	0x18b
 376 0173 91000000 		.4byte	0x91
 377 0177 06       		.uleb128 0x6
 378 0178 10       		.byte	0x10
 379 0179 04       		.byte	0x4
 380 017a 2802     		.2byte	0x228
 381 017c BD010000 		.4byte	0x1bd
 382 0180 07       		.uleb128 0x7
 383 0181 43435200 		.ascii	"CCR\000"
 384 0185 04       		.byte	0x4
 385 0186 2A02     		.2byte	0x22a
 386 0188 8C000000 		.4byte	0x8c
 387 018c 02       		.byte	0x2
 388 018d 23       		.byte	0x23
 389 018e 00       		.uleb128 0
ARM GAS  /tmp/ccWuZK3p.s 			page 9


 390 018f 08       		.uleb128 0x8
 391 0190 B5000000 		.4byte	.LASF21
 392 0194 04       		.byte	0x4
 393 0195 2B02     		.2byte	0x22b
 394 0197 8C000000 		.4byte	0x8c
 395 019b 02       		.byte	0x2
 396 019c 23       		.byte	0x23
 397 019d 04       		.uleb128 0x4
 398 019e 08       		.uleb128 0x8
 399 019f BB000000 		.4byte	.LASF22
 400 01a3 04       		.byte	0x4
 401 01a4 2C02     		.2byte	0x22c
 402 01a6 8C000000 		.4byte	0x8c
 403 01aa 02       		.byte	0x2
 404 01ab 23       		.byte	0x23
 405 01ac 08       		.uleb128 0x8
 406 01ad 08       		.uleb128 0x8
 407 01ae EB000000 		.4byte	.LASF23
 408 01b2 04       		.byte	0x4
 409 01b3 2D02     		.2byte	0x22d
 410 01b5 8C000000 		.4byte	0x8c
 411 01b9 02       		.byte	0x2
 412 01ba 23       		.byte	0x23
 413 01bb 0C       		.uleb128 0xc
 414 01bc 00       		.byte	0
 415 01bd 0B       		.uleb128 0xb
 416 01be 4E000000 		.4byte	.LASF24
 417 01c2 04       		.byte	0x4
 418 01c3 2E02     		.2byte	0x22e
 419 01c5 77010000 		.4byte	0x177
 420 01c9 06       		.uleb128 0x6
 421 01ca 38       		.byte	0x38
 422 01cb 04       		.byte	0x4
 423 01cc B502     		.2byte	0x2b5
 424 01ce A4020000 		.4byte	0x2a4
 425 01d2 07       		.uleb128 0x7
 426 01d3 435200   		.ascii	"CR\000"
 427 01d6 04       		.byte	0x4
 428 01d7 B702     		.2byte	0x2b7
 429 01d9 8C000000 		.4byte	0x8c
 430 01dd 02       		.byte	0x2
 431 01de 23       		.byte	0x23
 432 01df 00       		.uleb128 0
 433 01e0 08       		.uleb128 0x8
 434 01e1 34000000 		.4byte	.LASF25
 435 01e5 04       		.byte	0x4
 436 01e6 B802     		.2byte	0x2b8
 437 01e8 8C000000 		.4byte	0x8c
 438 01ec 02       		.byte	0x2
 439 01ed 23       		.byte	0x23
 440 01ee 04       		.uleb128 0x4
 441 01ef 07       		.uleb128 0x7
 442 01f0 43495200 		.ascii	"CIR\000"
 443 01f4 04       		.byte	0x4
 444 01f5 B902     		.2byte	0x2b9
 445 01f7 8C000000 		.4byte	0x8c
 446 01fb 02       		.byte	0x2
ARM GAS  /tmp/ccWuZK3p.s 			page 10


 447 01fc 23       		.byte	0x23
 448 01fd 08       		.uleb128 0x8
 449 01fe 08       		.uleb128 0x8
 450 01ff 07020000 		.4byte	.LASF26
 451 0203 04       		.byte	0x4
 452 0204 BA02     		.2byte	0x2ba
 453 0206 8C000000 		.4byte	0x8c
 454 020a 02       		.byte	0x2
 455 020b 23       		.byte	0x23
 456 020c 0C       		.uleb128 0xc
 457 020d 08       		.uleb128 0x8
 458 020e 9E000000 		.4byte	.LASF27
 459 0212 04       		.byte	0x4
 460 0213 BB02     		.2byte	0x2bb
 461 0215 8C000000 		.4byte	0x8c
 462 0219 02       		.byte	0x2
 463 021a 23       		.byte	0x23
 464 021b 10       		.uleb128 0x10
 465 021c 08       		.uleb128 0x8
 466 021d 39000000 		.4byte	.LASF28
 467 0221 04       		.byte	0x4
 468 0222 BC02     		.2byte	0x2bc
 469 0224 8C000000 		.4byte	0x8c
 470 0228 02       		.byte	0x2
 471 0229 23       		.byte	0x23
 472 022a 14       		.uleb128 0x14
 473 022b 08       		.uleb128 0x8
 474 022c F0000000 		.4byte	.LASF29
 475 0230 04       		.byte	0x4
 476 0231 BD02     		.2byte	0x2bd
 477 0233 8C000000 		.4byte	0x8c
 478 0237 02       		.byte	0x2
 479 0238 23       		.byte	0x23
 480 0239 18       		.uleb128 0x18
 481 023a 08       		.uleb128 0x8
 482 023b 03010000 		.4byte	.LASF30
 483 023f 04       		.byte	0x4
 484 0240 BE02     		.2byte	0x2be
 485 0242 8C000000 		.4byte	0x8c
 486 0246 02       		.byte	0x2
 487 0247 23       		.byte	0x23
 488 0248 1C       		.uleb128 0x1c
 489 0249 08       		.uleb128 0x8
 490 024a 2F000000 		.4byte	.LASF31
 491 024e 04       		.byte	0x4
 492 024f BF02     		.2byte	0x2bf
 493 0251 8C000000 		.4byte	0x8c
 494 0255 02       		.byte	0x2
 495 0256 23       		.byte	0x23
 496 0257 20       		.uleb128 0x20
 497 0258 07       		.uleb128 0x7
 498 0259 43535200 		.ascii	"CSR\000"
 499 025d 04       		.byte	0x4
 500 025e C002     		.2byte	0x2c0
 501 0260 8C000000 		.4byte	0x8c
 502 0264 02       		.byte	0x2
 503 0265 23       		.byte	0x23
ARM GAS  /tmp/ccWuZK3p.s 			page 11


 504 0266 24       		.uleb128 0x24
 505 0267 08       		.uleb128 0x8
 506 0268 40000000 		.4byte	.LASF32
 507 026c 04       		.byte	0x4
 508 026d C102     		.2byte	0x2c1
 509 026f 8C000000 		.4byte	0x8c
 510 0273 02       		.byte	0x2
 511 0274 23       		.byte	0x23
 512 0275 28       		.uleb128 0x28
 513 0276 08       		.uleb128 0x8
 514 0277 48000000 		.4byte	.LASF13
 515 027b 04       		.byte	0x4
 516 027c C202     		.2byte	0x2c2
 517 027e 8C000000 		.4byte	0x8c
 518 0282 02       		.byte	0x2
 519 0283 23       		.byte	0x23
 520 0284 2C       		.uleb128 0x2c
 521 0285 08       		.uleb128 0x8
 522 0286 D2000000 		.4byte	.LASF33
 523 028a 04       		.byte	0x4
 524 028b C302     		.2byte	0x2c3
 525 028d 8C000000 		.4byte	0x8c
 526 0291 02       		.byte	0x2
 527 0292 23       		.byte	0x23
 528 0293 30       		.uleb128 0x30
 529 0294 07       		.uleb128 0x7
 530 0295 43523200 		.ascii	"CR2\000"
 531 0299 04       		.byte	0x4
 532 029a C402     		.2byte	0x2c4
 533 029c 8C000000 		.4byte	0x8c
 534 02a0 02       		.byte	0x2
 535 02a1 23       		.byte	0x23
 536 02a2 34       		.uleb128 0x34
 537 02a3 00       		.byte	0
 538 02a4 0B       		.uleb128 0xb
 539 02a5 44020000 		.4byte	.LASF34
 540 02a9 04       		.byte	0x4
 541 02aa C502     		.2byte	0x2c5
 542 02ac C9010000 		.4byte	0x1c9
 543 02b0 0C       		.uleb128 0xc
 544 02b1 01       		.byte	0x1
 545 02b2 2C010000 		.4byte	.LASF35
 546 02b6 01       		.byte	0x1
 547 02b7 19       		.byte	0x19
 548 02b8 01       		.byte	0x1
 549 02b9 00000000 		.4byte	.LFB20
 550 02bd 5C000000 		.4byte	.LFE20
 551 02c1 02       		.byte	0x2
 552 02c2 7D       		.byte	0x7d
 553 02c3 00       		.sleb128 0
 554 02c4 01       		.byte	0x1
 555 02c5 0C       		.uleb128 0xc
 556 02c6 01       		.byte	0x1
 557 02c7 27020000 		.4byte	.LASF36
 558 02cb 01       		.byte	0x1
 559 02cc 3B       		.byte	0x3b
 560 02cd 01       		.byte	0x1
ARM GAS  /tmp/ccWuZK3p.s 			page 12


 561 02ce 00000000 		.4byte	.LFB21
 562 02d2 14000000 		.4byte	.LFE21
 563 02d6 02       		.byte	0x2
 564 02d7 7D       		.byte	0x7d
 565 02d8 00       		.sleb128 0
 566 02d9 01       		.byte	0x1
 567 02da 0C       		.uleb128 0xc
 568 02db 01       		.byte	0x1
 569 02dc 0B010000 		.4byte	.LASF37
 570 02e0 01       		.byte	0x1
 571 02e1 40       		.byte	0x40
 572 02e2 01       		.byte	0x1
 573 02e3 00000000 		.4byte	.LFB22
 574 02e7 14000000 		.4byte	.LFE22
 575 02eb 02       		.byte	0x2
 576 02ec 7D       		.byte	0x7d
 577 02ed 00       		.sleb128 0
 578 02ee 01       		.byte	0x1
 579 02ef 09       		.uleb128 0x9
 580 02f0 3E000000 		.4byte	0x3e
 581 02f4 FA020000 		.4byte	0x2fa
 582 02f8 0D       		.uleb128 0xd
 583 02f9 00       		.byte	0
 584 02fa 0E       		.uleb128 0xe
 585 02fb 91000000 		.4byte	.LASF41
 586 02ff 01       		.byte	0x1
 587 0300 10       		.byte	0x10
 588 0301 07030000 		.4byte	0x307
 589 0305 01       		.byte	0x1
 590 0306 01       		.byte	0x1
 591 0307 05       		.uleb128 0x5
 592 0308 EF020000 		.4byte	0x2ef
 593 030c 00       		.byte	0
 594              		.section	.debug_abbrev,"",%progbits
 595              	.Ldebug_abbrev0:
 596 0000 01       		.uleb128 0x1
 597 0001 11       		.uleb128 0x11
 598 0002 01       		.byte	0x1
 599 0003 25       		.uleb128 0x25
 600 0004 0E       		.uleb128 0xe
 601 0005 13       		.uleb128 0x13
 602 0006 0B       		.uleb128 0xb
 603 0007 03       		.uleb128 0x3
 604 0008 0E       		.uleb128 0xe
 605 0009 1B       		.uleb128 0x1b
 606 000a 0E       		.uleb128 0xe
 607 000b 55       		.uleb128 0x55
 608 000c 06       		.uleb128 0x6
 609 000d 11       		.uleb128 0x11
 610 000e 01       		.uleb128 0x1
 611 000f 52       		.uleb128 0x52
 612 0010 01       		.uleb128 0x1
 613 0011 10       		.uleb128 0x10
 614 0012 06       		.uleb128 0x6
 615 0013 00       		.byte	0
 616 0014 00       		.byte	0
 617 0015 02       		.uleb128 0x2
ARM GAS  /tmp/ccWuZK3p.s 			page 13


 618 0016 24       		.uleb128 0x24
 619 0017 00       		.byte	0
 620 0018 0B       		.uleb128 0xb
 621 0019 0B       		.uleb128 0xb
 622 001a 3E       		.uleb128 0x3e
 623 001b 0B       		.uleb128 0xb
 624 001c 03       		.uleb128 0x3
 625 001d 0E       		.uleb128 0xe
 626 001e 00       		.byte	0
 627 001f 00       		.byte	0
 628 0020 03       		.uleb128 0x3
 629 0021 16       		.uleb128 0x16
 630 0022 00       		.byte	0
 631 0023 03       		.uleb128 0x3
 632 0024 0E       		.uleb128 0xe
 633 0025 3A       		.uleb128 0x3a
 634 0026 0B       		.uleb128 0xb
 635 0027 3B       		.uleb128 0x3b
 636 0028 0B       		.uleb128 0xb
 637 0029 49       		.uleb128 0x49
 638 002a 13       		.uleb128 0x13
 639 002b 00       		.byte	0
 640 002c 00       		.byte	0
 641 002d 04       		.uleb128 0x4
 642 002e 24       		.uleb128 0x24
 643 002f 00       		.byte	0
 644 0030 0B       		.uleb128 0xb
 645 0031 0B       		.uleb128 0xb
 646 0032 3E       		.uleb128 0x3e
 647 0033 0B       		.uleb128 0xb
 648 0034 03       		.uleb128 0x3
 649 0035 08       		.uleb128 0x8
 650 0036 00       		.byte	0
 651 0037 00       		.byte	0
 652 0038 05       		.uleb128 0x5
 653 0039 35       		.uleb128 0x35
 654 003a 00       		.byte	0
 655 003b 49       		.uleb128 0x49
 656 003c 13       		.uleb128 0x13
 657 003d 00       		.byte	0
 658 003e 00       		.byte	0
 659 003f 06       		.uleb128 0x6
 660 0040 13       		.uleb128 0x13
 661 0041 01       		.byte	0x1
 662 0042 0B       		.uleb128 0xb
 663 0043 0B       		.uleb128 0xb
 664 0044 3A       		.uleb128 0x3a
 665 0045 0B       		.uleb128 0xb
 666 0046 3B       		.uleb128 0x3b
 667 0047 05       		.uleb128 0x5
 668 0048 01       		.uleb128 0x1
 669 0049 13       		.uleb128 0x13
 670 004a 00       		.byte	0
 671 004b 00       		.byte	0
 672 004c 07       		.uleb128 0x7
 673 004d 0D       		.uleb128 0xd
 674 004e 00       		.byte	0
ARM GAS  /tmp/ccWuZK3p.s 			page 14


 675 004f 03       		.uleb128 0x3
 676 0050 08       		.uleb128 0x8
 677 0051 3A       		.uleb128 0x3a
 678 0052 0B       		.uleb128 0xb
 679 0053 3B       		.uleb128 0x3b
 680 0054 05       		.uleb128 0x5
 681 0055 49       		.uleb128 0x49
 682 0056 13       		.uleb128 0x13
 683 0057 38       		.uleb128 0x38
 684 0058 0A       		.uleb128 0xa
 685 0059 00       		.byte	0
 686 005a 00       		.byte	0
 687 005b 08       		.uleb128 0x8
 688 005c 0D       		.uleb128 0xd
 689 005d 00       		.byte	0
 690 005e 03       		.uleb128 0x3
 691 005f 0E       		.uleb128 0xe
 692 0060 3A       		.uleb128 0x3a
 693 0061 0B       		.uleb128 0xb
 694 0062 3B       		.uleb128 0x3b
 695 0063 05       		.uleb128 0x5
 696 0064 49       		.uleb128 0x49
 697 0065 13       		.uleb128 0x13
 698 0066 38       		.uleb128 0x38
 699 0067 0A       		.uleb128 0xa
 700 0068 00       		.byte	0
 701 0069 00       		.byte	0
 702 006a 09       		.uleb128 0x9
 703 006b 01       		.uleb128 0x1
 704 006c 01       		.byte	0x1
 705 006d 49       		.uleb128 0x49
 706 006e 13       		.uleb128 0x13
 707 006f 01       		.uleb128 0x1
 708 0070 13       		.uleb128 0x13
 709 0071 00       		.byte	0
 710 0072 00       		.byte	0
 711 0073 0A       		.uleb128 0xa
 712 0074 21       		.uleb128 0x21
 713 0075 00       		.byte	0
 714 0076 49       		.uleb128 0x49
 715 0077 13       		.uleb128 0x13
 716 0078 2F       		.uleb128 0x2f
 717 0079 0B       		.uleb128 0xb
 718 007a 00       		.byte	0
 719 007b 00       		.byte	0
 720 007c 0B       		.uleb128 0xb
 721 007d 16       		.uleb128 0x16
 722 007e 00       		.byte	0
 723 007f 03       		.uleb128 0x3
 724 0080 0E       		.uleb128 0xe
 725 0081 3A       		.uleb128 0x3a
 726 0082 0B       		.uleb128 0xb
 727 0083 3B       		.uleb128 0x3b
 728 0084 05       		.uleb128 0x5
 729 0085 49       		.uleb128 0x49
 730 0086 13       		.uleb128 0x13
 731 0087 00       		.byte	0
ARM GAS  /tmp/ccWuZK3p.s 			page 15


 732 0088 00       		.byte	0
 733 0089 0C       		.uleb128 0xc
 734 008a 2E       		.uleb128 0x2e
 735 008b 00       		.byte	0
 736 008c 3F       		.uleb128 0x3f
 737 008d 0C       		.uleb128 0xc
 738 008e 03       		.uleb128 0x3
 739 008f 0E       		.uleb128 0xe
 740 0090 3A       		.uleb128 0x3a
 741 0091 0B       		.uleb128 0xb
 742 0092 3B       		.uleb128 0x3b
 743 0093 0B       		.uleb128 0xb
 744 0094 27       		.uleb128 0x27
 745 0095 0C       		.uleb128 0xc
 746 0096 11       		.uleb128 0x11
 747 0097 01       		.uleb128 0x1
 748 0098 12       		.uleb128 0x12
 749 0099 01       		.uleb128 0x1
 750 009a 40       		.uleb128 0x40
 751 009b 0A       		.uleb128 0xa
 752 009c 9742     		.uleb128 0x2117
 753 009e 0C       		.uleb128 0xc
 754 009f 00       		.byte	0
 755 00a0 00       		.byte	0
 756 00a1 0D       		.uleb128 0xd
 757 00a2 21       		.uleb128 0x21
 758 00a3 00       		.byte	0
 759 00a4 00       		.byte	0
 760 00a5 00       		.byte	0
 761 00a6 0E       		.uleb128 0xe
 762 00a7 34       		.uleb128 0x34
 763 00a8 00       		.byte	0
 764 00a9 03       		.uleb128 0x3
 765 00aa 0E       		.uleb128 0xe
 766 00ab 3A       		.uleb128 0x3a
 767 00ac 0B       		.uleb128 0xb
 768 00ad 3B       		.uleb128 0x3b
 769 00ae 0B       		.uleb128 0xb
 770 00af 49       		.uleb128 0x49
 771 00b0 13       		.uleb128 0x13
 772 00b1 3F       		.uleb128 0x3f
 773 00b2 0C       		.uleb128 0xc
 774 00b3 3C       		.uleb128 0x3c
 775 00b4 0C       		.uleb128 0xc
 776 00b5 00       		.byte	0
 777 00b6 00       		.byte	0
 778 00b7 00       		.byte	0
 779              		.section	.debug_aranges,"",%progbits
 780 0000 2C000000 		.4byte	0x2c
 781 0004 0200     		.2byte	0x2
 782 0006 00000000 		.4byte	.Ldebug_info0
 783 000a 04       		.byte	0x4
 784 000b 00       		.byte	0
 785 000c 0000     		.2byte	0
 786 000e 0000     		.2byte	0
 787 0010 00000000 		.4byte	.LFB20
 788 0014 5C000000 		.4byte	.LFE20-.LFB20
ARM GAS  /tmp/ccWuZK3p.s 			page 16


 789 0018 00000000 		.4byte	.LFB21
 790 001c 14000000 		.4byte	.LFE21-.LFB21
 791 0020 00000000 		.4byte	.LFB22
 792 0024 14000000 		.4byte	.LFE22-.LFB22
 793 0028 00000000 		.4byte	0
 794 002c 00000000 		.4byte	0
 795              		.section	.debug_ranges,"",%progbits
 796              	.Ldebug_ranges0:
 797 0000 00000000 		.4byte	.LFB20
 798 0004 5C000000 		.4byte	.LFE20
 799 0008 00000000 		.4byte	.LFB21
 800 000c 14000000 		.4byte	.LFE21
 801 0010 00000000 		.4byte	.LFB22
 802 0014 14000000 		.4byte	.LFE22
 803 0018 00000000 		.4byte	0
 804 001c 00000000 		.4byte	0
 805              		.section	.debug_line,"",%progbits
 806              	.Ldebug_line0:
 807 0000 30010000 		.section	.debug_str,"MS",%progbits,1
 807      0200EF00 
 807      00000201 
 807      FB0E0D00 
 807      01010101 
 808              	.LASF40:
 809 0000 2F686F6D 		.ascii	"/home/med/Documents/stm32_proj/emacs_dexel_pfc\000"
 809      652F6D65 
 809      642F446F 
 809      63756D65 
 809      6E74732F 
 810              	.LASF31:
 811 002f 42444352 		.ascii	"BDCR\000"
 811      00
 812              	.LASF25:
 813 0034 43464752 		.ascii	"CFGR\000"
 813      00
 814              	.LASF28:
 815 0039 41484245 		.ascii	"AHBENR\000"
 815      4E5200
 816              	.LASF32:
 817 0040 41484252 		.ascii	"AHBRSTR\000"
 817      53545200 
 818              	.LASF13:
 819 0048 43464752 		.ascii	"CFGR2\000"
 819      3200
 820              	.LASF24:
 821 004e 444D415F 		.ascii	"DMA_Channel_TypeDef\000"
 821      4368616E 
 821      6E656C5F 
 821      54797065 
 821      44656600 
 822              	.LASF18:
 823 0062 43485345 		.ascii	"CHSELR\000"
 823      4C5200
 824              	.LASF15:
 825 0069 52455345 		.ascii	"RESERVED1\000"
 825      52564544 
 825      3100
ARM GAS  /tmp/ccWuZK3p.s 			page 17


 826              	.LASF16:
 827 0073 52455345 		.ascii	"RESERVED2\000"
 827      52564544 
 827      3200
 828              	.LASF17:
 829 007d 52455345 		.ascii	"RESERVED3\000"
 829      52564544 
 829      3300
 830              	.LASF19:
 831 0087 52455345 		.ascii	"RESERVED4\000"
 831      52564544 
 831      3400
 832              	.LASF41:
 833 0091 6164635F 		.ascii	"adc_ch\000"
 833      636800
 834              	.LASF12:
 835 0098 43464752 		.ascii	"CFGR1\000"
 835      3100
 836              	.LASF27:
 837 009e 41504231 		.ascii	"APB1RSTR\000"
 837      52535452 
 837      00
 838              	.LASF1:
 839 00a7 756E7369 		.ascii	"unsigned char\000"
 839      676E6564 
 839      20636861 
 839      7200
 840              	.LASF21:
 841 00b5 434E4454 		.ascii	"CNDTR\000"
 841      5200
 842              	.LASF22:
 843 00bb 43504152 		.ascii	"CPAR\000"
 843      00
 844              	.LASF5:
 845 00c0 6C6F6E67 		.ascii	"long unsigned int\000"
 845      20756E73 
 845      69676E65 
 845      6420696E 
 845      7400
 846              	.LASF33:
 847 00d2 43464752 		.ascii	"CFGR3\000"
 847      3300
 848              	.LASF3:
 849 00d8 73686F72 		.ascii	"short unsigned int\000"
 849      7420756E 
 849      7369676E 
 849      65642069 
 849      6E7400
 850              	.LASF23:
 851 00eb 434D4152 		.ascii	"CMAR\000"
 851      00
 852              	.LASF29:
 853 00f0 41504232 		.ascii	"APB2ENR\000"
 853      454E5200 
 854              	.LASF9:
 855 00f8 5F5F7569 		.ascii	"__uint32_t\000"
 855      6E743332 
ARM GAS  /tmp/ccWuZK3p.s 			page 18


 855      5F7400
 856              	.LASF30:
 857 0103 41504231 		.ascii	"APB1ENR\000"
 857      454E5200 
 858              	.LASF37:
 859 010b 444D4144 		.ascii	"DMADisableInterrupt\000"
 859      69736162 
 859      6C65496E 
 859      74657272 
 859      75707400 
 860              	.LASF8:
 861 011f 756E7369 		.ascii	"unsigned int\000"
 861      676E6564 
 861      20696E74 
 861      00
 862              	.LASF35:
 863 012c 444D4143 		.ascii	"DMAConfig\000"
 863      6F6E6669 
 863      6700
 864              	.LASF7:
 865 0136 6C6F6E67 		.ascii	"long long unsigned int\000"
 865      206C6F6E 
 865      6720756E 
 865      7369676E 
 865      65642069 
 866              	.LASF14:
 867 014d 534D5052 		.ascii	"SMPR\000"
 867      00
 868              	.LASF39:
 869 0152 7372632F 		.ascii	"src/dma.c\000"
 869      646D612E 
 869      6300
 870              	.LASF38:
 871 015c 474E5520 		.ascii	"GNU C11 5.2.1 20151202 (release) [ARM/embedded-5-br"
 871      43313120 
 871      352E322E 
 871      31203230 
 871      31353132 
 872 018f 616E6368 		.ascii	"anch revision 231848] -mcpu=cortex-m0 -mthumb -g -g"
 872      20726576 
 872      6973696F 
 872      6E203233 
 872      31383438 
 873 01c2 64776172 		.ascii	"dwarf-2 -O0 -fomit-frame-pointer -fdata-sections -f"
 873      662D3220 
 873      2D4F3020 
 873      2D666F6D 
 873      69742D66 
 874 01f5 66756E63 		.ascii	"function-sections\000"
 874      74696F6E 
 874      2D736563 
 874      74696F6E 
 874      7300
 875              	.LASF26:
 876 0207 41504232 		.ascii	"APB2RSTR\000"
 876      52535452 
 876      00
ARM GAS  /tmp/ccWuZK3p.s 			page 19


 877              	.LASF11:
 878 0210 73697A65 		.ascii	"sizetype\000"
 878      74797065 
 878      00
 879              	.LASF6:
 880 0219 6C6F6E67 		.ascii	"long long int\000"
 880      206C6F6E 
 880      6720696E 
 880      7400
 881              	.LASF36:
 882 0227 444D4145 		.ascii	"DMAEnableInterrupt\000"
 882      6E61626C 
 882      65496E74 
 882      65727275 
 882      707400
 883              	.LASF2:
 884 023a 73686F72 		.ascii	"short int\000"
 884      7420696E 
 884      7400
 885              	.LASF34:
 886 0244 5243435F 		.ascii	"RCC_TypeDef\000"
 886      54797065 
 886      44656600 
 887              	.LASF10:
 888 0250 75696E74 		.ascii	"uint32_t\000"
 888      33325F74 
 888      00
 889              	.LASF4:
 890 0259 6C6F6E67 		.ascii	"long int\000"
 890      20696E74 
 890      00
 891              	.LASF20:
 892 0262 4144435F 		.ascii	"ADC_TypeDef\000"
 892      54797065 
 892      44656600 
 893              	.LASF0:
 894 026e 7369676E 		.ascii	"signed char\000"
 894      65642063 
 894      68617200 
 895              		.ident	"GCC: (GNU Tools for ARM Embedded Processors) 5.2.1 20151202 (release) [ARM/embedded-5-bran
ARM GAS  /tmp/ccWuZK3p.s 			page 20


DEFINED SYMBOLS
                            *ABS*:00000000 dma.c
     /tmp/ccWuZK3p.s:54     .text.DMAConfig:00000000 $t
     /tmp/ccWuZK3p.s:59     .text.DMAConfig:00000000 DMAConfig
     /tmp/ccWuZK3p.s:116    .text.DMAConfig:0000004c $d
     /tmp/ccWuZK3p.s:124    .text.DMAEnableInterrupt:00000000 $t
     /tmp/ccWuZK3p.s:129    .text.DMAEnableInterrupt:00000000 DMAEnableInterrupt
     /tmp/ccWuZK3p.s:147    .text.DMAEnableInterrupt:00000010 $d
     /tmp/ccWuZK3p.s:152    .text.DMADisableInterrupt:00000000 $t
     /tmp/ccWuZK3p.s:157    .text.DMADisableInterrupt:00000000 DMADisableInterrupt
     /tmp/ccWuZK3p.s:175    .text.DMADisableInterrupt:00000010 $d
                     .debug_frame:00000010 $d

UNDEFINED SYMBOLS
adc_ch
