ARM GAS  /tmp/ccTGK1Aa.s 			page 1


   1              		.syntax unified
   2              		.cpu cortex-m0
   3              		.fpu softvfp
   4              		.eabi_attribute 20, 1	@ Tag_ABI_FP_denormal
   5              		.eabi_attribute 21, 1	@ Tag_ABI_FP_exceptions
   6              		.eabi_attribute 23, 3	@ Tag_ABI_FP_number_model
   7              		.eabi_attribute 24, 1	@ Tag_ABI_align8_needed
   8              		.eabi_attribute 25, 1	@ Tag_ABI_align8_preserved
   9              		.eabi_attribute 26, 1	@ Tag_ABI_enum_size
  10              		.eabi_attribute 30, 6	@ Tag_ABI_optimization_goals
  11              		.eabi_attribute 34, 0	@ Tag_CPU_unaligned_access
  12              		.eabi_attribute 18, 4	@ Tag_ABI_PCS_wchar_t
  13              		.file	"flash_program.c"
  14              	@ GNU C11 (GNU Tools for ARM Embedded Processors) version 5.2.1 20151202 (release) [ARM/embedded-5-
  15              	@	compiled by GNU C version 4.7.4, GMP version 4.3.2, MPFR version 2.4.2, MPC version 0.8.1
  16              	@ GGC heuristics: --param ggc-min-expand=100 --param ggc-min-heapsize=131072
  17              	@ options passed:  -I . -I ./src -I ./cmsis_boot -I ./cmsis_core
  18              	@ -imultilib armv6-m
  19              	@ -iprefix /usr/local/sbin/gcc-arm-none-eabi-5_2-2015q4/bin/../lib/gcc/arm-none-eabi/5.2.1/
  20              	@ -isysroot /usr/local/sbin/gcc-arm-none-eabi-5_2-2015q4/bin/../arm-none-eabi
  21              	@ -D__USES_INITFINI__ -D STM32F030 src/flash_program.c -mcpu=cortex-m0
  22              	@ -mthumb -auxbase-strip src/flash_program.o -g -gdwarf-2 -O0 -Wall
  23              	@ -fomit-frame-pointer -fdata-sections -ffunction-sections -fverbose-asm
  24              	@ options enabled:  -faggressive-loop-optimizations -fauto-inc-dec
  25              	@ -fchkp-check-incomplete-type -fchkp-check-read -fchkp-check-write
  26              	@ -fchkp-instrument-calls -fchkp-narrow-bounds -fchkp-optimize
  27              	@ -fchkp-store-bounds -fchkp-use-static-bounds
  28              	@ -fchkp-use-static-const-bounds -fchkp-use-wrappers -fcommon
  29              	@ -fdata-sections -fdelete-null-pointer-checks -fdwarf2-cfi-asm
  30              	@ -fearly-inlining -feliminate-unused-debug-types -ffunction-cse
  31              	@ -ffunction-sections -fgcse-lm -fgnu-runtime -fgnu-unique -fident
  32              	@ -finline-atomics -fira-hoist-pressure -fira-share-save-slots
  33              	@ -fira-share-spill-slots -fivopts -fkeep-static-consts
  34              	@ -fleading-underscore -flifetime-dse -flto-odr-type-merging -fmath-errno
  35              	@ -fmerge-debug-strings -fomit-frame-pointer -fpeephole
  36              	@ -fprefetch-loop-arrays -freg-struct-return
  37              	@ -fsched-critical-path-heuristic -fsched-dep-count-heuristic
  38              	@ -fsched-group-heuristic -fsched-interblock -fsched-last-insn-heuristic
  39              	@ -fsched-rank-heuristic -fsched-spec -fsched-spec-insn-heuristic
  40              	@ -fsched-stalled-insns-dep -fsemantic-interposition -fshow-column
  41              	@ -fsigned-zeros -fsplit-ivs-in-unroller -fstdarg-opt
  42              	@ -fstrict-volatile-bitfields -fsync-libcalls -ftrapping-math
  43              	@ -ftree-coalesce-vars -ftree-cselim -ftree-forwprop -ftree-loop-if-convert
  44              	@ -ftree-loop-im -ftree-loop-ivcanon -ftree-loop-optimize
  45              	@ -ftree-parallelize-loops= -ftree-phiprop -ftree-reassoc -ftree-scev-cprop
  46              	@ -funit-at-a-time -fverbose-asm -fzero-initialized-in-bss -mlittle-endian
  47              	@ -mpic-data-is-text-relative -msched-prolog -mthumb
  48              	@ -mvectorize-with-neon-quad
  49              	
  50              		.text
  51              	.Ltext0:
  52              		.cfi_sections	.debug_frame
  53              		.section	.text.EraseAllMemory_FLASH,"ax",%progbits
  54              		.align	2
  55              		.global	EraseAllMemory_FLASH
  56              		.code	16
  57              		.thumb_func
ARM GAS  /tmp/ccTGK1Aa.s 			page 2


  58              		.type	EraseAllMemory_FLASH, %function
  59              	EraseAllMemory_FLASH:
  60              	.LFB20:
  61              		.file 1 "src/flash_program.c"
   1:src/flash_program.c **** //---------------------------------------------
   2:src/flash_program.c **** // ##
   3:src/flash_program.c **** // ## @Author: Med
   4:src/flash_program.c **** // ## @Editor: Emacs - ggtags
   5:src/flash_program.c **** // ## @TAGS:   Global
   6:src/flash_program.c **** // ## @CPU:    STM32F030
   7:src/flash_program.c **** // ##
   8:src/flash_program.c **** // #### FLASH_PROGRAM.C #######################
   9:src/flash_program.c **** //---------------------------------------------
  10:src/flash_program.c **** 
  11:src/flash_program.c **** /* Includes ------------------------------------------------------------------*/
  12:src/flash_program.c **** #include "flash_program.h"
  13:src/flash_program.c **** #include "stm32f0xx.h"
  14:src/flash_program.c **** #include <string.h>
  15:src/flash_program.c **** 
  16:src/flash_program.c **** 
  17:src/flash_program.c **** 
  18:src/flash_program.c **** /* Externals variables ---------------------------------------------------------*/
  19:src/flash_program.c **** extern parameters_typedef param_struct;
  20:src/flash_program.c **** //extern mem_bkp_typedef memory_backup;
  21:src/flash_program.c **** //extern filesystem_typedef files;
  22:src/flash_program.c **** //extern unsigned int v_bkp [];
  23:src/flash_program.c **** 
  24:src/flash_program.c **** 
  25:src/flash_program.c **** /* Private typedef -----------------------------------------------------------*/
  26:src/flash_program.c **** 
  27:src/flash_program.c **** 
  28:src/flash_program.c **** /* Private define ------------------------------------------------------------*/
  29:src/flash_program.c **** 
  30:src/flash_program.c **** 
  31:src/flash_program.c **** 
  32:src/flash_program.c **** /* Private macro -------------------------------------------------------------*/
  33:src/flash_program.c **** /* Private variables ---------------------------------------------------------*/
  34:src/flash_program.c **** //unsigned int * pmem = (unsigned int *)0x08007000;	//Sector 7 Page 28
  35:src/flash_program.c **** 
  36:src/flash_program.c **** 
  37:src/flash_program.c **** /* Private function prototypes -----------------------------------------------*/
  38:src/flash_program.c **** /* Private functions ---------------------------------------------------------*/
  39:src/flash_program.c **** //unsigned char ReadMem (void)
  40:src/flash_program.c **** //{
  41:src/flash_program.c **** //	if (*pmem == 0xffffffff)
  42:src/flash_program.c **** //		return 1;
  43:src/flash_program.c **** //	else
  44:src/flash_program.c **** //		return 0;
  45:src/flash_program.c **** //}
  46:src/flash_program.c **** 
  47:src/flash_program.c **** unsigned char EraseAllMemory_FLASH(void)
  48:src/flash_program.c **** {
  62              		.loc 1 48 0
  63              		.cfi_startproc
  64 0000 00B5     		push	{lr}	@
  65              	.LCFI0:
  66              		.cfi_def_cfa_offset 4
ARM GAS  /tmp/ccTGK1Aa.s 			page 3


  67              		.cfi_offset 14, -4
  68 0002 83B0     		sub	sp, sp, #12	@,,
  69              	.LCFI1:
  70              		.cfi_def_cfa_offset 16
  49:src/flash_program.c **** 	unsigned char resp = 0;
  71              		.loc 1 49 0
  72 0004 6B46     		mov	r3, sp	@ tmp127,
  73 0006 0733     		adds	r3, r3, #7	@ tmp115,
  74 0008 0022     		movs	r2, #0	@ tmp116,
  75 000a 1A70     		strb	r2, [r3]	@ tmp117, resp
  50:src/flash_program.c **** 
  51:src/flash_program.c **** 	ErasePage(PAGE31,1);
  76              		.loc 1 51 0
  77 000c 0D4B     		ldr	r3, .L5	@ tmp118,
  78 000e 0121     		movs	r1, #1	@,
  79 0010 1800     		movs	r0, r3	@, tmp118
  80 0012 FFF7FEFF 		bl	ErasePage	@
  52:src/flash_program.c **** 	//reviso si borre
  53:src/flash_program.c **** 
  54:src/flash_program.c **** 	if (*(unsigned int *) PAGE31 == 0xFFFFFFFF)
  81              		.loc 1 54 0
  82 0016 0B4B     		ldr	r3, .L5	@ D.5322,
  83 0018 1B68     		ldr	r3, [r3]	@ D.5323, *_6
  84 001a 0133     		adds	r3, r3, #1	@ tmp126, D.5323,
  85 001c 06D1     		bne	.L2	@,
  55:src/flash_program.c **** 		resp++;
  86              		.loc 1 55 0
  87 001e 6B46     		mov	r3, sp	@ tmp128,
  88 0020 0733     		adds	r3, r3, #7	@ tmp119,
  89 0022 1A78     		ldrb	r2, [r3]	@ D.5321, resp
  90 0024 6B46     		mov	r3, sp	@ tmp129,
  91 0026 0733     		adds	r3, r3, #7	@ tmp120,
  92 0028 0132     		adds	r2, r2, #1	@ tmp121,
  93 002a 1A70     		strb	r2, [r3]	@ tmp122, resp
  94              	.L2:
  56:src/flash_program.c **** 
  57:src/flash_program.c **** 	if (resp)
  95              		.loc 1 57 0
  96 002c 6B46     		mov	r3, sp	@ tmp130,
  97 002e 0733     		adds	r3, r3, #7	@ tmp123,
  98 0030 1B78     		ldrb	r3, [r3]	@ tmp124, resp
  99 0032 002B     		cmp	r3, #0	@ tmp124,
 100 0034 01D0     		beq	.L3	@,
  58:src/flash_program.c **** 		return PASSED;
 101              		.loc 1 58 0
 102 0036 0123     		movs	r3, #1	@ D.5321,
 103 0038 00E0     		b	.L4	@
 104              	.L3:
  59:src/flash_program.c **** 	else
  60:src/flash_program.c **** 		return FAILED;
 105              		.loc 1 60 0
 106 003a 0023     		movs	r3, #0	@ D.5321,
 107              	.L4:
  61:src/flash_program.c **** }
 108              		.loc 1 61 0
 109 003c 1800     		movs	r0, r3	@, <retval>
 110 003e 03B0     		add	sp, sp, #12	@,,
ARM GAS  /tmp/ccTGK1Aa.s 			page 4


 111              		@ sp needed	@
 112 0040 00BD     		pop	{pc}
 113              	.L6:
 114 0042 C046     		.align	2
 115              	.L5:
 116 0044 007C0008 		.word	134249472
 117              		.cfi_endproc
 118              	.LFE20:
 119              		.size	EraseAllMemory_FLASH, .-EraseAllMemory_FLASH
 120              		.section	.text.BackupPage,"ax",%progbits
 121              		.align	2
 122              		.global	BackupPage
 123              		.code	16
 124              		.thumb_func
 125              		.type	BackupPage, %function
 126              	BackupPage:
 127              	.LFB21:
  62:src/flash_program.c **** 
  63:src/flash_program.c **** /**
  64:src/flash_program.c ****   * @brief    After Reset, the Flash memory Program/Erase Controller is locked.
  65:src/flash_program.c ****   * To unlock it, the FLASH_Unlock function is used. Before programming the
  66:src/flash_program.c ****   * desired addresses, an erase operation is performed using the flash erase
  67:src/flash_program.c ****   * page feature. The erase procedure starts with the calculation of the number
  68:src/flash_program.c ****   * of pages to be used. Then all these pages will be erased one by one by
  69:src/flash_program.c ****   * calling FLASH_ErasePage function.
  70:src/flash_program.c ****   * Once this operation is finished, the programming operation will be performed by
  71:src/flash_program.c ****   * using the FLASH_ProgramWord function. The written data is then checked and the
  72:src/flash_program.c ****   * result of the programming operation is stored into the MemoryProgramStatus variable.
  73:src/flash_program.c ****   * @param  None
  74:src/flash_program.c ****   * @retval None
  75:src/flash_program.c ****   */
  76:src/flash_program.c **** 
  77:src/flash_program.c **** void BackupPage(unsigned int * p, unsigned int * page_addr)
  78:src/flash_program.c **** {
 128              		.loc 1 78 0
 129              		.cfi_startproc
 130 0000 84B0     		sub	sp, sp, #16	@,,
 131              	.LCFI2:
 132              		.cfi_def_cfa_offset 16
 133 0002 0190     		str	r0, [sp, #4]	@ p, p
 134 0004 0091     		str	r1, [sp]	@ page_addr, page_addr
  79:src/flash_program.c **** 	unsigned short i;
  80:src/flash_program.c **** 
  81:src/flash_program.c **** 	for (i = 0; i < 255; i++)
 135              		.loc 1 81 0
 136 0006 0E23     		movs	r3, #14	@ tmp118,
 137 0008 6B44     		add	r3, r3, sp	@ tmp118,
 138 000a 0022     		movs	r2, #0	@ tmp119,
 139 000c 1A80     		strh	r2, [r3]	@ tmp120, i
 140 000e 14E0     		b	.L8	@
 141              	.L9:
  82:src/flash_program.c **** 	{
  83:src/flash_program.c **** 		*(p + i) = *(page_addr + i);
 142              		.loc 1 83 0 discriminator 3
 143 0010 0E23     		movs	r3, #14	@ tmp121,
 144 0012 6B44     		add	r3, r3, sp	@ tmp121,
 145 0014 1B88     		ldrh	r3, [r3]	@ D.5324, i
ARM GAS  /tmp/ccTGK1Aa.s 			page 5


 146 0016 9B00     		lsls	r3, r3, #2	@ D.5324, D.5324,
 147 0018 019A     		ldr	r2, [sp, #4]	@ tmp122, p
 148 001a D318     		adds	r3, r2, r3	@ D.5325, tmp122, D.5324
 149 001c 0E22     		movs	r2, #14	@ tmp123,
 150 001e 6A44     		add	r2, r2, sp	@ tmp123,
 151 0020 1288     		ldrh	r2, [r2]	@ D.5324, i
 152 0022 9200     		lsls	r2, r2, #2	@ D.5324, D.5324,
 153 0024 0099     		ldr	r1, [sp]	@ tmp124, page_addr
 154 0026 8A18     		adds	r2, r1, r2	@ D.5325, tmp124, D.5324
 155 0028 1268     		ldr	r2, [r2]	@ D.5324, *_12
 156 002a 1A60     		str	r2, [r3]	@ D.5324, *_8
  81:src/flash_program.c **** 	{
 157              		.loc 1 81 0 discriminator 3
 158 002c 0E23     		movs	r3, #14	@ tmp125,
 159 002e 6B44     		add	r3, r3, sp	@ tmp125,
 160 0030 1A88     		ldrh	r2, [r3]	@ D.5326, i
 161 0032 0E23     		movs	r3, #14	@ tmp126,
 162 0034 6B44     		add	r3, r3, sp	@ tmp126,
 163 0036 0132     		adds	r2, r2, #1	@ tmp127,
 164 0038 1A80     		strh	r2, [r3]	@ tmp128, i
 165              	.L8:
  81:src/flash_program.c **** 	{
 166              		.loc 1 81 0 is_stmt 0 discriminator 1
 167 003a 0E23     		movs	r3, #14	@ tmp129,
 168 003c 6B44     		add	r3, r3, sp	@ tmp129,
 169 003e 1B88     		ldrh	r3, [r3]	@ tmp130, i
 170 0040 FE2B     		cmp	r3, #254	@ tmp130,
 171 0042 E5D9     		bls	.L9	@,
  84:src/flash_program.c **** 	}
  85:src/flash_program.c **** }
 172              		.loc 1 85 0 is_stmt 1
 173 0044 C046     		nop
 174 0046 04B0     		add	sp, sp, #16	@,,
 175              		@ sp needed	@
 176 0048 7047     		bx	lr
 177              		.cfi_endproc
 178              	.LFE21:
 179              		.size	BackupPage, .-BackupPage
 180 004a C046     		.section	.text.ErasePage,"ax",%progbits
 181              		.align	2
 182              		.global	ErasePage
 183              		.code	16
 184              		.thumb_func
 185              		.type	ErasePage, %function
 186              	ErasePage:
 187              	.LFB22:
  86:src/flash_program.c **** 
  87:src/flash_program.c **** void ErasePage(uint32_t p_addr, unsigned char with_lock)
  88:src/flash_program.c **** {
 188              		.loc 1 88 0
 189              		.cfi_startproc
 190 0000 00B5     		push	{lr}	@
 191              	.LCFI3:
 192              		.cfi_def_cfa_offset 4
 193              		.cfi_offset 14, -4
 194 0002 83B0     		sub	sp, sp, #12	@,,
 195              	.LCFI4:
ARM GAS  /tmp/ccTGK1Aa.s 			page 6


 196              		.cfi_def_cfa_offset 16
 197 0004 0190     		str	r0, [sp, #4]	@ p_addr, p_addr
 198 0006 0A00     		movs	r2, r1	@ tmp110, with_lock
 199 0008 6B46     		mov	r3, sp	@ tmp116,
 200 000a 0333     		adds	r3, r3, #3	@ tmp111,
 201 000c 1A70     		strb	r2, [r3]	@ tmp112, with_lock
  89:src/flash_program.c **** 	FLASH_Unlock();
 202              		.loc 1 89 0
 203 000e FFF7FEFF 		bl	FLASH_Unlock	@
  90:src/flash_program.c **** 	FLASH_ErasePage(p_addr);
 204              		.loc 1 90 0
 205 0012 019B     		ldr	r3, [sp, #4]	@ tmp113, p_addr
 206 0014 1800     		movs	r0, r3	@, tmp113
 207 0016 FFF7FEFF 		bl	FLASH_ErasePage	@
  91:src/flash_program.c **** 	if (with_lock)
 208              		.loc 1 91 0
 209 001a 6B46     		mov	r3, sp	@ tmp117,
 210 001c 0333     		adds	r3, r3, #3	@ tmp114,
 211 001e 1B78     		ldrb	r3, [r3]	@ tmp115, with_lock
 212 0020 002B     		cmp	r3, #0	@ tmp115,
 213 0022 01D0     		beq	.L12	@,
  92:src/flash_program.c **** 		FLASH_Lock();
 214              		.loc 1 92 0
 215 0024 FFF7FEFF 		bl	FLASH_Lock	@
 216              	.L12:
  93:src/flash_program.c **** }
 217              		.loc 1 93 0
 218 0028 C046     		nop
 219 002a 03B0     		add	sp, sp, #12	@,,
 220              		@ sp needed	@
 221 002c 00BD     		pop	{pc}
 222              		.cfi_endproc
 223              	.LFE22:
 224              		.size	ErasePage, .-ErasePage
 225 002e C046     		.section	.text.FLASH_Unlock,"ax",%progbits
 226              		.align	2
 227              		.global	FLASH_Unlock
 228              		.code	16
 229              		.thumb_func
 230              		.type	FLASH_Unlock, %function
 231              	FLASH_Unlock:
 232              	.LFB23:
  94:src/flash_program.c **** 
  95:src/flash_program.c **** /**
  96:src/flash_program.c ****   * @brief  Unlocks the FLASH control register and program memory access.
  97:src/flash_program.c ****   * @param  None
  98:src/flash_program.c ****   * @retval None
  99:src/flash_program.c ****   */
 100:src/flash_program.c **** void FLASH_Unlock(void)
 101:src/flash_program.c **** {
 233              		.loc 1 101 0
 234              		.cfi_startproc
 102:src/flash_program.c ****   if((FLASH->CR & FLASH_CR_LOCK) != RESET)
 235              		.loc 1 102 0
 236 0000 064B     		ldr	r3, .L16	@ D.5327,
 237 0002 1B69     		ldr	r3, [r3, #16]	@ D.5328, _2->CR
 238 0004 8022     		movs	r2, #128	@ tmp115,
ARM GAS  /tmp/ccTGK1Aa.s 			page 7


 239 0006 1340     		ands	r3, r2	@ D.5328, tmp115
 240 0008 05D0     		beq	.L15	@,
 103:src/flash_program.c ****   {
 104:src/flash_program.c ****     /* Unlocking the program memory access */
 105:src/flash_program.c ****     FLASH->KEYR = FLASH_FKEY1;
 241              		.loc 1 105 0
 242 000a 044B     		ldr	r3, .L16	@ D.5327,
 243 000c 044A     		ldr	r2, .L16+4	@ tmp116,
 244 000e 5A60     		str	r2, [r3, #4]	@ tmp116, _6->KEYR
 106:src/flash_program.c ****     FLASH->KEYR = FLASH_FKEY2;
 245              		.loc 1 106 0
 246 0010 024B     		ldr	r3, .L16	@ D.5327,
 247 0012 044A     		ldr	r2, .L16+8	@ tmp117,
 248 0014 5A60     		str	r2, [r3, #4]	@ tmp117, _8->KEYR
 249              	.L15:
 107:src/flash_program.c ****   }
 108:src/flash_program.c **** }
 250              		.loc 1 108 0
 251 0016 C046     		nop
 252              		@ sp needed	@
 253 0018 7047     		bx	lr
 254              	.L17:
 255 001a C046     		.align	2
 256              	.L16:
 257 001c 00200240 		.word	1073881088
 258 0020 23016745 		.word	1164378403
 259 0024 AB89EFCD 		.word	-839939669
 260              		.cfi_endproc
 261              	.LFE23:
 262              		.size	FLASH_Unlock, .-FLASH_Unlock
 263              		.section	.text.FLASH_ErasePage,"ax",%progbits
 264              		.align	2
 265              		.global	FLASH_ErasePage
 266              		.code	16
 267              		.thumb_func
 268              		.type	FLASH_ErasePage, %function
 269              	FLASH_ErasePage:
 270              	.LFB24:
 109:src/flash_program.c **** 
 110:src/flash_program.c **** /**
 111:src/flash_program.c ****   * @brief  Erases a specified page in program memory.
 112:src/flash_program.c ****   * @note   To correctly run this function, the FLASH_Unlock() function must be called before.
 113:src/flash_program.c ****   * @note   Call the FLASH_Lock() to disable the flash memory access (recommended
 114:src/flash_program.c ****   *         to protect the FLASH memory against possible unwanted operation)
 115:src/flash_program.c ****   * @param  Page_Address: The page address in program memory to be erased.
 116:src/flash_program.c ****   * @note   A Page is erased in the Program memory only if the address to load
 117:src/flash_program.c ****   *         is the start address of a page (multiple of 1024 bytes).
 118:src/flash_program.c ****   * @retval FLASH Status: The returned value can be:
 119:src/flash_program.c ****   *         FLASH_ERROR_PROGRAM, FLASH_ERROR_WRP, FLASH_COMPLETE or FLASH_TIMEOUT.
 120:src/flash_program.c ****   */
 121:src/flash_program.c **** FLASH_Status FLASH_ErasePage(uint32_t Page_Address)
 122:src/flash_program.c **** {
 271              		.loc 1 122 0
 272              		.cfi_startproc
 273 0000 10B5     		push	{r4, lr}	@
 274              	.LCFI5:
 275              		.cfi_def_cfa_offset 8
ARM GAS  /tmp/ccTGK1Aa.s 			page 8


 276              		.cfi_offset 4, -8
 277              		.cfi_offset 14, -4
 278 0002 84B0     		sub	sp, sp, #16	@,,
 279              	.LCFI6:
 280              		.cfi_def_cfa_offset 24
 281 0004 0190     		str	r0, [sp, #4]	@ Page_Address, Page_Address
 123:src/flash_program.c ****   FLASH_Status status = FLASH_COMPLETE;
 282              		.loc 1 123 0
 283 0006 0F23     		movs	r3, #15	@ tmp125,
 284 0008 6B44     		add	r3, r3, sp	@ tmp125,
 285 000a 0422     		movs	r2, #4	@ tmp126,
 286 000c 1A70     		strb	r2, [r3]	@ tmp127, status
 124:src/flash_program.c **** 
 125:src/flash_program.c ****   /* Wait for last operation to be completed */
 126:src/flash_program.c ****   status = FLASH_WaitForLastOperation(FLASH_ER_PRG_TIMEOUT);
 287              		.loc 1 126 0
 288 000e 0F24     		movs	r4, #15	@ tmp128,
 289 0010 6C44     		add	r4, r4, sp	@ tmp128,
 290 0012 B023     		movs	r3, #176	@ tmp147,
 291 0014 1B03     		lsls	r3, r3, #12	@ tmp129, tmp147,
 292 0016 1800     		movs	r0, r3	@, tmp129
 293 0018 FFF7FEFF 		bl	FLASH_WaitForLastOperation	@
 294 001c 0300     		movs	r3, r0	@ tmp130,
 295 001e 2370     		strb	r3, [r4]	@ tmp132, status
 127:src/flash_program.c **** 
 128:src/flash_program.c ****   if(status == FLASH_COMPLETE)
 296              		.loc 1 128 0
 297 0020 0F23     		movs	r3, #15	@ tmp133,
 298 0022 6B44     		add	r3, r3, sp	@ tmp133,
 299 0024 1B78     		ldrb	r3, [r3]	@ tmp134, status
 300 0026 042B     		cmp	r3, #4	@ tmp134,
 301 0028 1DD1     		bne	.L19	@,
 129:src/flash_program.c ****   {
 130:src/flash_program.c ****     /* If the previous operation is completed, proceed to erase the page */
 131:src/flash_program.c ****     FLASH->CR |= FLASH_CR_PER;
 302              		.loc 1 131 0
 303 002a 124B     		ldr	r3, .L21	@ D.5329,
 304 002c 114A     		ldr	r2, .L21	@ D.5329,
 305 002e 1269     		ldr	r2, [r2, #16]	@ D.5330, _8->CR
 306 0030 0221     		movs	r1, #2	@ tmp135,
 307 0032 0A43     		orrs	r2, r1	@ D.5330, tmp135
 308 0034 1A61     		str	r2, [r3, #16]	@ D.5330, _7->CR
 132:src/flash_program.c ****     FLASH->AR  = Page_Address;
 309              		.loc 1 132 0
 310 0036 0F4B     		ldr	r3, .L21	@ D.5329,
 311 0038 019A     		ldr	r2, [sp, #4]	@ tmp136, Page_Address
 312 003a 5A61     		str	r2, [r3, #20]	@ tmp136, _12->AR
 133:src/flash_program.c ****     FLASH->CR |= FLASH_CR_STRT;
 313              		.loc 1 133 0
 314 003c 0D4B     		ldr	r3, .L21	@ D.5329,
 315 003e 0D4A     		ldr	r2, .L21	@ D.5329,
 316 0040 1269     		ldr	r2, [r2, #16]	@ D.5330, _16->CR
 317 0042 4021     		movs	r1, #64	@ tmp137,
 318 0044 0A43     		orrs	r2, r1	@ D.5330, tmp137
 319 0046 1A61     		str	r2, [r3, #16]	@ D.5330, _15->CR
 134:src/flash_program.c **** 
 135:src/flash_program.c ****     /* Wait for last operation to be completed */
ARM GAS  /tmp/ccTGK1Aa.s 			page 9


 136:src/flash_program.c ****     status = FLASH_WaitForLastOperation(FLASH_ER_PRG_TIMEOUT);
 320              		.loc 1 136 0
 321 0048 0F24     		movs	r4, #15	@ tmp138,
 322 004a 6C44     		add	r4, r4, sp	@ tmp138,
 323 004c B023     		movs	r3, #176	@ tmp146,
 324 004e 1B03     		lsls	r3, r3, #12	@ tmp139, tmp146,
 325 0050 1800     		movs	r0, r3	@, tmp139
 326 0052 FFF7FEFF 		bl	FLASH_WaitForLastOperation	@
 327 0056 0300     		movs	r3, r0	@ tmp140,
 328 0058 2370     		strb	r3, [r4]	@ tmp142, status
 137:src/flash_program.c **** 
 138:src/flash_program.c ****     /* Disable the PER Bit */
 139:src/flash_program.c ****     FLASH->CR &= ~FLASH_CR_PER;
 329              		.loc 1 139 0
 330 005a 064B     		ldr	r3, .L21	@ D.5329,
 331 005c 054A     		ldr	r2, .L21	@ D.5329,
 332 005e 1269     		ldr	r2, [r2, #16]	@ D.5330, _23->CR
 333 0060 0221     		movs	r1, #2	@ tmp143,
 334 0062 8A43     		bics	r2, r1	@ D.5330, tmp143
 335 0064 1A61     		str	r2, [r3, #16]	@ D.5330, _22->CR
 336              	.L19:
 140:src/flash_program.c ****   }
 141:src/flash_program.c **** 
 142:src/flash_program.c ****   /* Return the Erase Status */
 143:src/flash_program.c ****   return status;
 337              		.loc 1 143 0
 338 0066 0F23     		movs	r3, #15	@ tmp144,
 339 0068 6B44     		add	r3, r3, sp	@ tmp144,
 340 006a 1B78     		ldrb	r3, [r3]	@ D.5331, status
 144:src/flash_program.c **** }
 341              		.loc 1 144 0
 342 006c 1800     		movs	r0, r3	@, <retval>
 343 006e 04B0     		add	sp, sp, #16	@,,
 344              		@ sp needed	@
 345 0070 10BD     		pop	{r4, pc}
 346              	.L22:
 347 0072 C046     		.align	2
 348              	.L21:
 349 0074 00200240 		.word	1073881088
 350              		.cfi_endproc
 351              	.LFE24:
 352              		.size	FLASH_ErasePage, .-FLASH_ErasePage
 353              		.section	.text.FLASH_Lock,"ax",%progbits
 354              		.align	2
 355              		.global	FLASH_Lock
 356              		.code	16
 357              		.thumb_func
 358              		.type	FLASH_Lock, %function
 359              	FLASH_Lock:
 360              	.LFB25:
 145:src/flash_program.c **** 
 146:src/flash_program.c **** /**
 147:src/flash_program.c ****   * @brief  Locks the Program memory access.
 148:src/flash_program.c ****   * @param  None
 149:src/flash_program.c ****   * @retval None
 150:src/flash_program.c ****   */
 151:src/flash_program.c **** void FLASH_Lock(void)
ARM GAS  /tmp/ccTGK1Aa.s 			page 10


 152:src/flash_program.c **** {
 361              		.loc 1 152 0
 362              		.cfi_startproc
 153:src/flash_program.c ****   /* Set the LOCK Bit to lock the FLASH control register and program memory access */
 154:src/flash_program.c ****   FLASH->CR |= FLASH_CR_LOCK;
 363              		.loc 1 154 0
 364 0000 034B     		ldr	r3, .L24	@ D.5332,
 365 0002 034A     		ldr	r2, .L24	@ D.5332,
 366 0004 1269     		ldr	r2, [r2, #16]	@ D.5333, _2->CR
 367 0006 8021     		movs	r1, #128	@ tmp114,
 368 0008 0A43     		orrs	r2, r1	@ D.5333, tmp114
 369 000a 1A61     		str	r2, [r3, #16]	@ D.5333, _1->CR
 155:src/flash_program.c **** }
 370              		.loc 1 155 0
 371 000c C046     		nop
 372              		@ sp needed	@
 373 000e 7047     		bx	lr
 374              	.L25:
 375              		.align	2
 376              	.L24:
 377 0010 00200240 		.word	1073881088
 378              		.cfi_endproc
 379              	.LFE25:
 380              		.size	FLASH_Lock, .-FLASH_Lock
 381              		.section	.text.FLASH_ProgramWord,"ax",%progbits
 382              		.align	2
 383              		.global	FLASH_ProgramWord
 384              		.code	16
 385              		.thumb_func
 386              		.type	FLASH_ProgramWord, %function
 387              	FLASH_ProgramWord:
 388              	.LFB26:
 156:src/flash_program.c **** 
 157:src/flash_program.c **** /**
 158:src/flash_program.c ****   * @brief  Programs a word at a specified address.
 159:src/flash_program.c ****   * @note   To correctly run this function, the FLASH_Unlock() function must be called before.
 160:src/flash_program.c ****   * @note   Call the FLASH_Lock() to disable the flash memory access (recommended
 161:src/flash_program.c ****   *         to protect the FLASH memory against possible unwanted operation)
 162:src/flash_program.c ****   * @param  Address: specifies the address to be programmed.
 163:src/flash_program.c ****   * @param  Data: specifies the data to be programmed.
 164:src/flash_program.c ****   * @retval FLASH Status: The returned value can be: FLASH_ERROR_PG,
 165:src/flash_program.c ****   *         FLASH_ERROR_WRP, FLASH_COMPLETE or FLASH_TIMEOUT.
 166:src/flash_program.c ****   */
 167:src/flash_program.c **** FLASH_Status FLASH_ProgramWord(uint32_t Address, uint32_t Data)
 168:src/flash_program.c **** {
 389              		.loc 1 168 0
 390              		.cfi_startproc
 391 0000 10B5     		push	{r4, lr}	@
 392              	.LCFI7:
 393              		.cfi_def_cfa_offset 8
 394              		.cfi_offset 4, -8
 395              		.cfi_offset 14, -4
 396 0002 84B0     		sub	sp, sp, #16	@,,
 397              	.LCFI8:
 398              		.cfi_def_cfa_offset 24
 399 0004 0190     		str	r0, [sp, #4]	@ Address, Address
 400 0006 0091     		str	r1, [sp]	@ Data, Data
ARM GAS  /tmp/ccTGK1Aa.s 			page 11


 169:src/flash_program.c ****   FLASH_Status status = FLASH_COMPLETE;
 401              		.loc 1 169 0
 402 0008 0F23     		movs	r3, #15	@ tmp131,
 403 000a 6B44     		add	r3, r3, sp	@ tmp131,
 404 000c 0422     		movs	r2, #4	@ tmp132,
 405 000e 1A70     		strb	r2, [r3]	@ tmp133, status
 170:src/flash_program.c ****   __IO uint32_t tmp = 0;
 406              		.loc 1 170 0
 407 0010 0023     		movs	r3, #0	@ tmp134,
 408 0012 0293     		str	r3, [sp, #8]	@ tmp134, tmp
 171:src/flash_program.c **** 
 172:src/flash_program.c ****     /* Wait for last operation to be completed */
 173:src/flash_program.c ****   status = FLASH_WaitForLastOperation(FLASH_ER_PRG_TIMEOUT);
 409              		.loc 1 173 0
 410 0014 0F24     		movs	r4, #15	@ tmp135,
 411 0016 6C44     		add	r4, r4, sp	@ tmp135,
 412 0018 B023     		movs	r3, #176	@ tmp167,
 413 001a 1B03     		lsls	r3, r3, #12	@ tmp136, tmp167,
 414 001c 1800     		movs	r0, r3	@, tmp136
 415 001e FFF7FEFF 		bl	FLASH_WaitForLastOperation	@
 416 0022 0300     		movs	r3, r0	@ tmp137,
 417 0024 2370     		strb	r3, [r4]	@ tmp139, status
 174:src/flash_program.c **** 
 175:src/flash_program.c ****   if(status == FLASH_COMPLETE)
 418              		.loc 1 175 0
 419 0026 0F23     		movs	r3, #15	@ tmp140,
 420 0028 6B44     		add	r3, r3, sp	@ tmp140,
 421 002a 1B78     		ldrb	r3, [r3]	@ tmp141, status
 422 002c 042B     		cmp	r3, #4	@ tmp141,
 423 002e 36D1     		bne	.L27	@,
 176:src/flash_program.c ****   {
 177:src/flash_program.c ****     /* If the previous operation is completed, proceed to program the new first
 178:src/flash_program.c ****     half word */
 179:src/flash_program.c ****     FLASH->CR |= FLASH_CR_PG;
 424              		.loc 1 179 0
 425 0030 1E4B     		ldr	r3, .L30	@ D.5334,
 426 0032 1E4A     		ldr	r2, .L30	@ D.5334,
 427 0034 1269     		ldr	r2, [r2, #16]	@ D.5335, _9->CR
 428 0036 0121     		movs	r1, #1	@ tmp142,
 429 0038 0A43     		orrs	r2, r1	@ D.5335, tmp142
 430 003a 1A61     		str	r2, [r3, #16]	@ D.5335, _8->CR
 180:src/flash_program.c **** 
 181:src/flash_program.c ****     *(__IO uint16_t*)Address = (uint16_t)Data;
 431              		.loc 1 181 0
 432 003c 019B     		ldr	r3, [sp, #4]	@ D.5336, Address
 433 003e 009A     		ldr	r2, [sp]	@ tmp144, Data
 434 0040 92B2     		uxth	r2, r2	@ D.5337, tmp143
 435 0042 1A80     		strh	r2, [r3]	@ tmp145, *_14
 182:src/flash_program.c **** 
 183:src/flash_program.c ****     /* Wait for last operation to be completed */
 184:src/flash_program.c ****     status = FLASH_WaitForLastOperation(FLASH_ER_PRG_TIMEOUT);
 436              		.loc 1 184 0
 437 0044 0F24     		movs	r4, #15	@ tmp146,
 438 0046 6C44     		add	r4, r4, sp	@ tmp146,
 439 0048 B023     		movs	r3, #176	@ tmp166,
 440 004a 1B03     		lsls	r3, r3, #12	@ tmp147, tmp166,
 441 004c 1800     		movs	r0, r3	@, tmp147
ARM GAS  /tmp/ccTGK1Aa.s 			page 12


 442 004e FFF7FEFF 		bl	FLASH_WaitForLastOperation	@
 443 0052 0300     		movs	r3, r0	@ tmp148,
 444 0054 2370     		strb	r3, [r4]	@ tmp150, status
 185:src/flash_program.c **** 
 186:src/flash_program.c ****     if(status == FLASH_COMPLETE)
 445              		.loc 1 186 0
 446 0056 0F23     		movs	r3, #15	@ tmp151,
 447 0058 6B44     		add	r3, r3, sp	@ tmp151,
 448 005a 1B78     		ldrb	r3, [r3]	@ tmp152, status
 449 005c 042B     		cmp	r3, #4	@ tmp152,
 450 005e 18D1     		bne	.L28	@,
 187:src/flash_program.c ****     {
 188:src/flash_program.c ****       /* If the previous operation is completed, proceed to program the new second
 189:src/flash_program.c ****       half word */
 190:src/flash_program.c ****       tmp = Address + 2;
 451              		.loc 1 190 0
 452 0060 019B     		ldr	r3, [sp, #4]	@ tmp153, Address
 453 0062 0233     		adds	r3, r3, #2	@ D.5335,
 454 0064 0293     		str	r3, [sp, #8]	@ D.5335, tmp
 191:src/flash_program.c **** 
 192:src/flash_program.c ****       *(__IO uint16_t*) tmp = Data >> 16;
 455              		.loc 1 192 0
 456 0066 029B     		ldr	r3, [sp, #8]	@ D.5335, tmp
 457 0068 1A00     		movs	r2, r3	@ D.5336, D.5335
 458 006a 009B     		ldr	r3, [sp]	@ tmp154, Data
 459 006c 1B0C     		lsrs	r3, r3, #16	@ D.5335, tmp154,
 460 006e 9BB2     		uxth	r3, r3	@ D.5337, D.5335
 461 0070 1380     		strh	r3, [r2]	@ tmp155, *_23
 193:src/flash_program.c **** 
 194:src/flash_program.c ****       /* Wait for last operation to be completed */
 195:src/flash_program.c ****       status = FLASH_WaitForLastOperation(FLASH_ER_PRG_TIMEOUT);
 462              		.loc 1 195 0
 463 0072 0F24     		movs	r4, #15	@ tmp156,
 464 0074 6C44     		add	r4, r4, sp	@ tmp156,
 465 0076 B023     		movs	r3, #176	@ tmp165,
 466 0078 1B03     		lsls	r3, r3, #12	@ tmp157, tmp165,
 467 007a 1800     		movs	r0, r3	@, tmp157
 468 007c FFF7FEFF 		bl	FLASH_WaitForLastOperation	@
 469 0080 0300     		movs	r3, r0	@ tmp158,
 470 0082 2370     		strb	r3, [r4]	@ tmp160, status
 196:src/flash_program.c **** 
 197:src/flash_program.c ****       /* Disable the PG Bit */
 198:src/flash_program.c ****       FLASH->CR &= ~FLASH_CR_PG;
 471              		.loc 1 198 0
 472 0084 094B     		ldr	r3, .L30	@ D.5334,
 473 0086 094A     		ldr	r2, .L30	@ D.5334,
 474 0088 1269     		ldr	r2, [r2, #16]	@ D.5335, _30->CR
 475 008a 0121     		movs	r1, #1	@ tmp161,
 476 008c 8A43     		bics	r2, r1	@ D.5335, tmp161
 477 008e 1A61     		str	r2, [r3, #16]	@ D.5335, _29->CR
 478 0090 05E0     		b	.L27	@
 479              	.L28:
 199:src/flash_program.c ****     }
 200:src/flash_program.c ****     else
 201:src/flash_program.c ****     {
 202:src/flash_program.c ****       /* Disable the PG Bit */
 203:src/flash_program.c ****       FLASH->CR &= ~FLASH_CR_PG;
ARM GAS  /tmp/ccTGK1Aa.s 			page 13


 480              		.loc 1 203 0
 481 0092 064B     		ldr	r3, .L30	@ D.5334,
 482 0094 054A     		ldr	r2, .L30	@ D.5334,
 483 0096 1269     		ldr	r2, [r2, #16]	@ D.5335, _35->CR
 484 0098 0121     		movs	r1, #1	@ tmp162,
 485 009a 8A43     		bics	r2, r1	@ D.5335, tmp162
 486 009c 1A61     		str	r2, [r3, #16]	@ D.5335, _34->CR
 487              	.L27:
 204:src/flash_program.c ****     }
 205:src/flash_program.c ****   }
 206:src/flash_program.c **** 
 207:src/flash_program.c ****   /* Return the Program Status */
 208:src/flash_program.c ****   return status;
 488              		.loc 1 208 0
 489 009e 0F23     		movs	r3, #15	@ tmp163,
 490 00a0 6B44     		add	r3, r3, sp	@ tmp163,
 491 00a2 1B78     		ldrb	r3, [r3]	@ D.5338, status
 209:src/flash_program.c **** }
 492              		.loc 1 209 0
 493 00a4 1800     		movs	r0, r3	@, <retval>
 494 00a6 04B0     		add	sp, sp, #16	@,,
 495              		@ sp needed	@
 496 00a8 10BD     		pop	{r4, pc}
 497              	.L31:
 498 00aa C046     		.align	2
 499              	.L30:
 500 00ac 00200240 		.word	1073881088
 501              		.cfi_endproc
 502              	.LFE26:
 503              		.size	FLASH_ProgramWord, .-FLASH_ProgramWord
 504              		.section	.text.FLASH_WaitForLastOperation,"ax",%progbits
 505              		.align	2
 506              		.global	FLASH_WaitForLastOperation
 507              		.code	16
 508              		.thumb_func
 509              		.type	FLASH_WaitForLastOperation, %function
 510              	FLASH_WaitForLastOperation:
 511              	.LFB27:
 210:src/flash_program.c **** 
 211:src/flash_program.c **** /**
 212:src/flash_program.c ****   * @brief  Waits for a FLASH operation to complete or a TIMEOUT to occur.
 213:src/flash_program.c ****   * @param  Timeout: FLASH programming Timeout
 214:src/flash_program.c ****   * @retval FLASH Status: The returned value can be: FLASH_BUSY,
 215:src/flash_program.c ****   *         FLASH_ERROR_PROGRAM, FLASH_ERROR_WRP, FLASH_COMPLETE or FLASH_TIMEOUT.
 216:src/flash_program.c ****   */
 217:src/flash_program.c **** FLASH_Status FLASH_WaitForLastOperation(uint32_t Timeout)
 218:src/flash_program.c **** {
 512              		.loc 1 218 0
 513              		.cfi_startproc
 514 0000 10B5     		push	{r4, lr}	@
 515              	.LCFI9:
 516              		.cfi_def_cfa_offset 8
 517              		.cfi_offset 4, -8
 518              		.cfi_offset 14, -4
 519 0002 84B0     		sub	sp, sp, #16	@,,
 520              	.LCFI10:
 521              		.cfi_def_cfa_offset 24
ARM GAS  /tmp/ccTGK1Aa.s 			page 14


 522 0004 0190     		str	r0, [sp, #4]	@ Timeout, Timeout
 219:src/flash_program.c ****   FLASH_Status status = FLASH_COMPLETE;
 523              		.loc 1 219 0
 524 0006 0F23     		movs	r3, #15	@ tmp112,
 525 0008 6B44     		add	r3, r3, sp	@ tmp112,
 526 000a 0422     		movs	r2, #4	@ tmp113,
 527 000c 1A70     		strb	r2, [r3]	@ tmp114, status
 220:src/flash_program.c **** 
 221:src/flash_program.c ****   /* Check for the FLASH Status */
 222:src/flash_program.c ****   status = FLASH_GetStatus();
 528              		.loc 1 222 0
 529 000e 0F24     		movs	r4, #15	@ tmp115,
 530 0010 6C44     		add	r4, r4, sp	@ tmp115,
 531 0012 FFF7FEFF 		bl	FLASH_GetStatus	@
 532 0016 0300     		movs	r3, r0	@ tmp116,
 533 0018 2370     		strb	r3, [r4]	@ tmp118, status
 223:src/flash_program.c **** 
 224:src/flash_program.c ****   /* Wait for a FLASH operation to complete or a TIMEOUT to occur */
 225:src/flash_program.c ****   while((status == FLASH_BUSY) && (Timeout != 0x00))
 534              		.loc 1 225 0
 535 001a 08E0     		b	.L33	@
 536              	.L35:
 226:src/flash_program.c ****   {
 227:src/flash_program.c ****     status = FLASH_GetStatus();
 537              		.loc 1 227 0
 538 001c 0F24     		movs	r4, #15	@ tmp119,
 539 001e 6C44     		add	r4, r4, sp	@ tmp119,
 540 0020 FFF7FEFF 		bl	FLASH_GetStatus	@
 541 0024 0300     		movs	r3, r0	@ tmp120,
 542 0026 2370     		strb	r3, [r4]	@ tmp122, status
 228:src/flash_program.c ****     Timeout--;
 543              		.loc 1 228 0
 544 0028 019B     		ldr	r3, [sp, #4]	@ tmp124, Timeout
 545 002a 013B     		subs	r3, r3, #1	@ tmp123,
 546 002c 0193     		str	r3, [sp, #4]	@ tmp123, Timeout
 547              	.L33:
 225:src/flash_program.c ****   {
 548              		.loc 1 225 0
 549 002e 0F23     		movs	r3, #15	@ tmp125,
 550 0030 6B44     		add	r3, r3, sp	@ tmp125,
 551 0032 1B78     		ldrb	r3, [r3]	@ tmp126, status
 552 0034 012B     		cmp	r3, #1	@ tmp126,
 553 0036 02D1     		bne	.L34	@,
 225:src/flash_program.c ****   {
 554              		.loc 1 225 0 is_stmt 0 discriminator 1
 555 0038 019B     		ldr	r3, [sp, #4]	@ tmp127, Timeout
 556 003a 002B     		cmp	r3, #0	@ tmp127,
 557 003c EED1     		bne	.L35	@,
 558              	.L34:
 229:src/flash_program.c ****   }
 230:src/flash_program.c **** 
 231:src/flash_program.c ****   if(Timeout == 0x00 )
 559              		.loc 1 231 0 is_stmt 1
 560 003e 019B     		ldr	r3, [sp, #4]	@ tmp128, Timeout
 561 0040 002B     		cmp	r3, #0	@ tmp128,
 562 0042 03D1     		bne	.L36	@,
 232:src/flash_program.c ****   {
ARM GAS  /tmp/ccTGK1Aa.s 			page 15


 233:src/flash_program.c ****     status = FLASH_TIMEOUT;
 563              		.loc 1 233 0
 564 0044 0F23     		movs	r3, #15	@ tmp129,
 565 0046 6B44     		add	r3, r3, sp	@ tmp129,
 566 0048 0522     		movs	r2, #5	@ tmp130,
 567 004a 1A70     		strb	r2, [r3]	@ tmp131, status
 568              	.L36:
 234:src/flash_program.c ****   }
 235:src/flash_program.c ****   /* Return the operation status */
 236:src/flash_program.c ****   return status;
 569              		.loc 1 236 0
 570 004c 0F23     		movs	r3, #15	@ tmp132,
 571 004e 6B44     		add	r3, r3, sp	@ tmp132,
 572 0050 1B78     		ldrb	r3, [r3]	@ D.5339, status
 237:src/flash_program.c **** }
 573              		.loc 1 237 0
 574 0052 1800     		movs	r0, r3	@, <retval>
 575 0054 04B0     		add	sp, sp, #16	@,,
 576              		@ sp needed	@
 577 0056 10BD     		pop	{r4, pc}
 578              		.cfi_endproc
 579              	.LFE27:
 580              		.size	FLASH_WaitForLastOperation, .-FLASH_WaitForLastOperation
 581              		.section	.text.FLASH_GetStatus,"ax",%progbits
 582              		.align	2
 583              		.global	FLASH_GetStatus
 584              		.code	16
 585              		.thumb_func
 586              		.type	FLASH_GetStatus, %function
 587              	FLASH_GetStatus:
 588              	.LFB28:
 238:src/flash_program.c **** 
 239:src/flash_program.c **** /**
 240:src/flash_program.c ****   * @brief  Returns the FLASH Status.
 241:src/flash_program.c ****   * @param  None
 242:src/flash_program.c ****   * @retval FLASH Status: The returned value can be:
 243:src/flash_program.c ****   *         FLASH_BUSY, FLASH_ERROR_PROGRAM, FLASH_ERROR_WRP or FLASH_COMPLETE.
 244:src/flash_program.c ****   */
 245:src/flash_program.c **** FLASH_Status FLASH_GetStatus(void)
 246:src/flash_program.c **** {
 589              		.loc 1 246 0
 590              		.cfi_startproc
 591 0000 82B0     		sub	sp, sp, #8	@,,
 592              	.LCFI11:
 593              		.cfi_def_cfa_offset 8
 247:src/flash_program.c ****   FLASH_Status FLASHstatus = FLASH_COMPLETE;
 594              		.loc 1 247 0
 595 0002 6B46     		mov	r3, sp	@ tmp141,
 596 0004 0733     		adds	r3, r3, #7	@ tmp121,
 597 0006 0422     		movs	r2, #4	@ tmp122,
 598 0008 1A70     		strb	r2, [r3]	@ tmp123, FLASHstatus
 248:src/flash_program.c **** 
 249:src/flash_program.c ****   if((FLASH->SR & FLASH_FLAG_BSY) == FLASH_FLAG_BSY)
 599              		.loc 1 249 0
 600 000a 144B     		ldr	r3, .L44	@ D.5340,
 601 000c DB68     		ldr	r3, [r3, #12]	@ D.5341, _3->SR
 602 000e 0122     		movs	r2, #1	@ tmp124,
ARM GAS  /tmp/ccTGK1Aa.s 			page 16


 603 0010 1340     		ands	r3, r2	@ D.5341, tmp124
 604 0012 04D0     		beq	.L39	@,
 250:src/flash_program.c ****   {
 251:src/flash_program.c ****     FLASHstatus = FLASH_BUSY;
 605              		.loc 1 251 0
 606 0014 6B46     		mov	r3, sp	@ tmp142,
 607 0016 0733     		adds	r3, r3, #7	@ tmp125,
 608 0018 0122     		movs	r2, #1	@ tmp126,
 609 001a 1A70     		strb	r2, [r3]	@ tmp127, FLASHstatus
 610 001c 17E0     		b	.L40	@
 611              	.L39:
 252:src/flash_program.c ****   }
 253:src/flash_program.c ****   else
 254:src/flash_program.c ****   {
 255:src/flash_program.c ****     if((FLASH->SR & (uint32_t)FLASH_FLAG_WRPERR)!= (uint32_t)0x00)
 612              		.loc 1 255 0
 613 001e 0F4B     		ldr	r3, .L44	@ D.5340,
 614 0020 DB68     		ldr	r3, [r3, #12]	@ D.5341, _8->SR
 615 0022 1022     		movs	r2, #16	@ tmp128,
 616 0024 1340     		ands	r3, r2	@ D.5341, tmp128
 617 0026 04D0     		beq	.L41	@,
 256:src/flash_program.c ****     {
 257:src/flash_program.c ****       FLASHstatus = FLASH_ERROR_WRP;
 618              		.loc 1 257 0
 619 0028 6B46     		mov	r3, sp	@ tmp143,
 620 002a 0733     		adds	r3, r3, #7	@ tmp129,
 621 002c 0222     		movs	r2, #2	@ tmp130,
 622 002e 1A70     		strb	r2, [r3]	@ tmp131, FLASHstatus
 623 0030 0DE0     		b	.L40	@
 624              	.L41:
 258:src/flash_program.c ****     }
 259:src/flash_program.c ****     else
 260:src/flash_program.c ****     {
 261:src/flash_program.c ****       if((FLASH->SR & (uint32_t)(FLASH_SR_PGERR)) != (uint32_t)0x00)
 625              		.loc 1 261 0
 626 0032 0A4B     		ldr	r3, .L44	@ D.5340,
 627 0034 DB68     		ldr	r3, [r3, #12]	@ D.5341, _12->SR
 628 0036 0422     		movs	r2, #4	@ tmp132,
 629 0038 1340     		ands	r3, r2	@ D.5341, tmp132
 630 003a 04D0     		beq	.L42	@,
 262:src/flash_program.c ****       {
 263:src/flash_program.c ****         FLASHstatus = FLASH_ERROR_PROGRAM;
 631              		.loc 1 263 0
 632 003c 6B46     		mov	r3, sp	@ tmp144,
 633 003e 0733     		adds	r3, r3, #7	@ tmp133,
 634 0040 0322     		movs	r2, #3	@ tmp134,
 635 0042 1A70     		strb	r2, [r3]	@ tmp135, FLASHstatus
 636 0044 03E0     		b	.L40	@
 637              	.L42:
 264:src/flash_program.c ****       }
 265:src/flash_program.c ****       else
 266:src/flash_program.c ****       {
 267:src/flash_program.c ****         FLASHstatus = FLASH_COMPLETE;
 638              		.loc 1 267 0
 639 0046 6B46     		mov	r3, sp	@ tmp145,
 640 0048 0733     		adds	r3, r3, #7	@ tmp136,
 641 004a 0422     		movs	r2, #4	@ tmp137,
ARM GAS  /tmp/ccTGK1Aa.s 			page 17


 642 004c 1A70     		strb	r2, [r3]	@ tmp138, FLASHstatus
 643              	.L40:
 268:src/flash_program.c ****       }
 269:src/flash_program.c ****     }
 270:src/flash_program.c ****   }
 271:src/flash_program.c ****   /* Return the FLASH Status */
 272:src/flash_program.c ****   return FLASHstatus;
 644              		.loc 1 272 0
 645 004e 6B46     		mov	r3, sp	@ tmp146,
 646 0050 0733     		adds	r3, r3, #7	@ tmp139,
 647 0052 1B78     		ldrb	r3, [r3]	@ D.5342, FLASHstatus
 273:src/flash_program.c **** }
 648              		.loc 1 273 0
 649 0054 1800     		movs	r0, r3	@, <retval>
 650 0056 02B0     		add	sp, sp, #8	@,,
 651              		@ sp needed	@
 652 0058 7047     		bx	lr
 653              	.L45:
 654 005a C046     		.align	2
 655              	.L44:
 656 005c 00200240 		.word	1073881088
 657              		.cfi_endproc
 658              	.LFE28:
 659              		.size	FLASH_GetStatus, .-FLASH_GetStatus
 660              		.section	.text.WritePage,"ax",%progbits
 661              		.align	2
 662              		.global	WritePage
 663              		.code	16
 664              		.thumb_func
 665              		.type	WritePage, %function
 666              	WritePage:
 667              	.LFB29:
 274:src/flash_program.c **** 
 275:src/flash_program.c **** unsigned char WritePage(unsigned int * p, uint32_t p_addr, unsigned char with_lock)
 276:src/flash_program.c **** {
 668              		.loc 1 276 0
 669              		.cfi_startproc
 670 0000 00B5     		push	{lr}	@
 671              	.LCFI12:
 672              		.cfi_def_cfa_offset 4
 673              		.cfi_offset 14, -4
 674 0002 87B0     		sub	sp, sp, #28	@,,
 675              	.LCFI13:
 676              		.cfi_def_cfa_offset 32
 677 0004 0390     		str	r0, [sp, #12]	@ p, p
 678 0006 0291     		str	r1, [sp, #8]	@ p_addr, p_addr
 679 0008 6B46     		mov	r3, sp	@ tmp160,
 680 000a 0733     		adds	r3, r3, #7	@ tmp127,
 681 000c 1A70     		strb	r2, [r3]	@ tmp128, with_lock
 277:src/flash_program.c **** 	unsigned short i;
 278:src/flash_program.c **** 	unsigned int * p_verif;
 279:src/flash_program.c **** 
 280:src/flash_program.c **** 	p_verif = (unsigned int *) p_addr;
 682              		.loc 1 280 0
 683 000e 029B     		ldr	r3, [sp, #8]	@ tmp129, p_addr
 684 0010 0493     		str	r3, [sp, #16]	@ tmp129, p_verif
 281:src/flash_program.c **** 
ARM GAS  /tmp/ccTGK1Aa.s 			page 18


 282:src/flash_program.c **** 	for (i = 0; i < 255; i++)
 685              		.loc 1 282 0
 686 0012 1623     		movs	r3, #22	@ tmp130,
 687 0014 6B44     		add	r3, r3, sp	@ tmp130,
 688 0016 0022     		movs	r2, #0	@ tmp131,
 689 0018 1A80     		strh	r2, [r3]	@ tmp132, i
 690 001a 15E0     		b	.L47	@
 691              	.L48:
 283:src/flash_program.c **** 	{
 284:src/flash_program.c **** 		FLASH_ProgramWord(p_addr, *(p + i));
 692              		.loc 1 284 0 discriminator 3
 693 001c 1623     		movs	r3, #22	@ tmp133,
 694 001e 6B44     		add	r3, r3, sp	@ tmp133,
 695 0020 1B88     		ldrh	r3, [r3]	@ D.5344, i
 696 0022 9B00     		lsls	r3, r3, #2	@ D.5344, D.5344,
 697 0024 039A     		ldr	r2, [sp, #12]	@ tmp134, p
 698 0026 D318     		adds	r3, r2, r3	@ D.5345, tmp134, D.5344
 699 0028 1A68     		ldr	r2, [r3]	@ D.5344, *_14
 700 002a 029B     		ldr	r3, [sp, #8]	@ tmp135, p_addr
 701 002c 1100     		movs	r1, r2	@, D.5344
 702 002e 1800     		movs	r0, r3	@, tmp135
 703 0030 FFF7FEFF 		bl	FLASH_ProgramWord	@
 285:src/flash_program.c **** 		p_addr += 4;
 704              		.loc 1 285 0 discriminator 3
 705 0034 029B     		ldr	r3, [sp, #8]	@ tmp137, p_addr
 706 0036 0433     		adds	r3, r3, #4	@ tmp136,
 707 0038 0293     		str	r3, [sp, #8]	@ tmp136, p_addr
 282:src/flash_program.c **** 	{
 708              		.loc 1 282 0 discriminator 3
 709 003a 1623     		movs	r3, #22	@ tmp138,
 710 003c 6B44     		add	r3, r3, sp	@ tmp138,
 711 003e 1A88     		ldrh	r2, [r3]	@ D.5346, i
 712 0040 1623     		movs	r3, #22	@ tmp139,
 713 0042 6B44     		add	r3, r3, sp	@ tmp139,
 714 0044 0132     		adds	r2, r2, #1	@ tmp140,
 715 0046 1A80     		strh	r2, [r3]	@ tmp141, i
 716              	.L47:
 282:src/flash_program.c **** 	{
 717              		.loc 1 282 0 is_stmt 0 discriminator 1
 718 0048 1623     		movs	r3, #22	@ tmp142,
 719 004a 6B44     		add	r3, r3, sp	@ tmp142,
 720 004c 1B88     		ldrh	r3, [r3]	@ tmp143, i
 721 004e FE2B     		cmp	r3, #254	@ tmp143,
 722 0050 E4D9     		bls	.L48	@,
 286:src/flash_program.c **** 	}
 287:src/flash_program.c **** 
 288:src/flash_program.c **** 	if (with_lock)
 723              		.loc 1 288 0 is_stmt 1
 724 0052 6B46     		mov	r3, sp	@ tmp166,
 725 0054 0733     		adds	r3, r3, #7	@ tmp144,
 726 0056 1B78     		ldrb	r3, [r3]	@ tmp145, with_lock
 727 0058 002B     		cmp	r3, #0	@ tmp145,
 728 005a 01D0     		beq	.L49	@,
 289:src/flash_program.c **** 		FLASH_Lock();
 729              		.loc 1 289 0
 730 005c FFF7FEFF 		bl	FLASH_Lock	@
 731              	.L49:
ARM GAS  /tmp/ccTGK1Aa.s 			page 19


 290:src/flash_program.c **** 
 291:src/flash_program.c **** 	//verifico memoria
 292:src/flash_program.c **** 	for (i = 0; i < 255; i++)
 732              		.loc 1 292 0
 733 0060 1623     		movs	r3, #22	@ tmp146,
 734 0062 6B44     		add	r3, r3, sp	@ tmp146,
 735 0064 0022     		movs	r2, #0	@ tmp147,
 736 0066 1A80     		strh	r2, [r3]	@ tmp148, i
 737 0068 18E0     		b	.L50	@
 738              	.L53:
 293:src/flash_program.c **** 	{
 294:src/flash_program.c **** 		if (*(p_verif + i) != *(p + i))
 739              		.loc 1 294 0
 740 006a 1623     		movs	r3, #22	@ tmp149,
 741 006c 6B44     		add	r3, r3, sp	@ tmp149,
 742 006e 1B88     		ldrh	r3, [r3]	@ D.5344, i
 743 0070 9B00     		lsls	r3, r3, #2	@ D.5344, D.5344,
 744 0072 049A     		ldr	r2, [sp, #16]	@ tmp150, p_verif
 745 0074 D318     		adds	r3, r2, r3	@ D.5345, tmp150, D.5344
 746 0076 1A68     		ldr	r2, [r3]	@ D.5344, *_25
 747 0078 1623     		movs	r3, #22	@ tmp151,
 748 007a 6B44     		add	r3, r3, sp	@ tmp151,
 749 007c 1B88     		ldrh	r3, [r3]	@ D.5344, i
 750 007e 9B00     		lsls	r3, r3, #2	@ D.5344, D.5344,
 751 0080 0399     		ldr	r1, [sp, #12]	@ tmp152, p
 752 0082 CB18     		adds	r3, r1, r3	@ D.5345, tmp152, D.5344
 753 0084 1B68     		ldr	r3, [r3]	@ D.5344, *_29
 754 0086 9A42     		cmp	r2, r3	@ D.5344, D.5344
 755 0088 01D0     		beq	.L51	@,
 295:src/flash_program.c **** 			return FAILED;
 756              		.loc 1 295 0
 757 008a 0023     		movs	r3, #0	@ D.5343,
 758 008c 0CE0     		b	.L52	@
 759              	.L51:
 292:src/flash_program.c **** 	{
 760              		.loc 1 292 0 discriminator 2
 761 008e 1623     		movs	r3, #22	@ tmp153,
 762 0090 6B44     		add	r3, r3, sp	@ tmp153,
 763 0092 1A88     		ldrh	r2, [r3]	@ D.5346, i
 764 0094 1623     		movs	r3, #22	@ tmp154,
 765 0096 6B44     		add	r3, r3, sp	@ tmp154,
 766 0098 0132     		adds	r2, r2, #1	@ tmp155,
 767 009a 1A80     		strh	r2, [r3]	@ tmp156, i
 768              	.L50:
 292:src/flash_program.c **** 	{
 769              		.loc 1 292 0 is_stmt 0 discriminator 1
 770 009c 1623     		movs	r3, #22	@ tmp157,
 771 009e 6B44     		add	r3, r3, sp	@ tmp157,
 772 00a0 1B88     		ldrh	r3, [r3]	@ tmp158, i
 773 00a2 FE2B     		cmp	r3, #254	@ tmp158,
 774 00a4 E1D9     		bls	.L53	@,
 296:src/flash_program.c **** 	}
 297:src/flash_program.c **** 	return PASSED;
 775              		.loc 1 297 0 is_stmt 1
 776 00a6 0123     		movs	r3, #1	@ D.5343,
 777              	.L52:
 298:src/flash_program.c **** }
ARM GAS  /tmp/ccTGK1Aa.s 			page 20


 778              		.loc 1 298 0
 779 00a8 1800     		movs	r0, r3	@, <retval>
 780 00aa 07B0     		add	sp, sp, #28	@,,
 781              		@ sp needed	@
 782 00ac 00BD     		pop	{pc}
 783              		.cfi_endproc
 784              	.LFE29:
 785              		.size	WritePage, .-WritePage
 786 00ae C046     		.section	.text.WriteConfigurations,"ax",%progbits
 787              		.align	2
 788              		.global	WriteConfigurations
 789              		.code	16
 790              		.thumb_func
 791              		.type	WriteConfigurations, %function
 792              	WriteConfigurations:
 793              	.LFB30:
 299:src/flash_program.c **** 
 300:src/flash_program.c **** 
 301:src/flash_program.c **** unsigned char WriteConfigurations (parameters_typedef * p_param)
 302:src/flash_program.c **** {
 794              		.loc 1 302 0
 795              		.cfi_startproc
 796 0000 00B5     		push	{lr}	@
 797              	.LCFI14:
 798              		.cfi_def_cfa_offset 4
 799              		.cfi_offset 14, -4
 800 0002 83B0     		sub	sp, sp, #12	@,,
 801              	.LCFI15:
 802              		.cfi_def_cfa_offset 16
 803 0004 0190     		str	r0, [sp, #4]	@ p_param, p_param
 303:src/flash_program.c **** 	ErasePage(PAGE63,0);
 804              		.loc 1 303 0
 805 0006 094B     		ldr	r3, .L57	@ tmp113,
 806 0008 0021     		movs	r1, #0	@,
 807 000a 1800     		movs	r0, r3	@, tmp113
 808 000c FFF7FEFF 		bl	ErasePage	@
 304:src/flash_program.c **** 
 305:src/flash_program.c **** 	//update en memoria
 306:src/flash_program.c **** 	//p_param = &param_struct;
 307:src/flash_program.c **** 
 308:src/flash_program.c **** 	if (WriteFlash((unsigned int *) p_param, PAGE63, 1, (sizeof(parameters_typedef) >> 2)) == FAILED)
 809              		.loc 1 308 0
 810 0010 0649     		ldr	r1, .L57	@ tmp114,
 811 0012 0198     		ldr	r0, [sp, #4]	@ tmp115, p_param
 812 0014 1523     		movs	r3, #21	@,
 813 0016 0122     		movs	r2, #1	@,
 814 0018 FFF7FEFF 		bl	WriteFlash	@
 815 001c 031E     		subs	r3, r0, #0	@ tmp116,,
 816 001e 01D1     		bne	.L55	@,
 309:src/flash_program.c **** 		return FAILED;
 817              		.loc 1 309 0
 818 0020 0023     		movs	r3, #0	@ D.5347,
 819 0022 00E0     		b	.L56	@
 820              	.L55:
 310:src/flash_program.c **** 
 311:src/flash_program.c **** 	return PASSED;
 821              		.loc 1 311 0
ARM GAS  /tmp/ccTGK1Aa.s 			page 21


 822 0024 0123     		movs	r3, #1	@ D.5347,
 823              	.L56:
 312:src/flash_program.c **** }
 824              		.loc 1 312 0
 825 0026 1800     		movs	r0, r3	@, <retval>
 826 0028 03B0     		add	sp, sp, #12	@,,
 827              		@ sp needed	@
 828 002a 00BD     		pop	{pc}
 829              	.L58:
 830              		.align	2
 831              	.L57:
 832 002c 00FC0008 		.word	134282240
 833              		.cfi_endproc
 834              	.LFE30:
 835              		.size	WriteConfigurations, .-WriteConfigurations
 836              		.section	.text.WriteFlash,"ax",%progbits
 837              		.align	2
 838              		.global	WriteFlash
 839              		.code	16
 840              		.thumb_func
 841              		.type	WriteFlash, %function
 842              	WriteFlash:
 843              	.LFB31:
 313:src/flash_program.c **** 
 314:src/flash_program.c **** unsigned char WriteFlash(unsigned int * p, uint32_t p_addr, unsigned char with_lock, unsigned char 
 315:src/flash_program.c **** {
 844              		.loc 1 315 0
 845              		.cfi_startproc
 846 0000 00B5     		push	{lr}	@
 847              	.LCFI16:
 848              		.cfi_def_cfa_offset 4
 849              		.cfi_offset 14, -4
 850 0002 87B0     		sub	sp, sp, #28	@,,
 851              	.LCFI17:
 852              		.cfi_def_cfa_offset 32
 853 0004 0390     		str	r0, [sp, #12]	@ p, p
 854 0006 0291     		str	r1, [sp, #8]	@ p_addr, p_addr
 855 0008 1900     		movs	r1, r3	@ tmp131, len_in_4
 856 000a 6B46     		mov	r3, sp	@ tmp171,
 857 000c 0733     		adds	r3, r3, #7	@ tmp129,
 858 000e 1A70     		strb	r2, [r3]	@ tmp130, with_lock
 859 0010 6B46     		mov	r3, sp	@ tmp172,
 860 0012 0633     		adds	r3, r3, #6	@ tmp132,
 861 0014 0A1C     		adds	r2, r1, #0	@ tmp133, tmp131
 862 0016 1A70     		strb	r2, [r3]	@ tmp133, len_in_4
 316:src/flash_program.c **** 	unsigned short i;
 317:src/flash_program.c **** 	unsigned int * p_verif;
 318:src/flash_program.c **** 
 319:src/flash_program.c **** 	p_verif = (unsigned int *) p_addr;
 863              		.loc 1 319 0
 864 0018 029B     		ldr	r3, [sp, #8]	@ tmp134, p_addr
 865 001a 0493     		str	r3, [sp, #16]	@ tmp134, p_verif
 320:src/flash_program.c **** 
 321:src/flash_program.c **** 	for (i = 0; i < len_in_4; i++)
 866              		.loc 1 321 0
 867 001c 1623     		movs	r3, #22	@ tmp135,
 868 001e 6B44     		add	r3, r3, sp	@ tmp135,
ARM GAS  /tmp/ccTGK1Aa.s 			page 22


 869 0020 0022     		movs	r2, #0	@ tmp136,
 870 0022 1A80     		strh	r2, [r3]	@ tmp137, i
 871 0024 15E0     		b	.L60	@
 872              	.L61:
 322:src/flash_program.c **** 	{
 323:src/flash_program.c **** 		FLASH_ProgramWord(p_addr, *(p + i));
 873              		.loc 1 323 0 discriminator 3
 874 0026 1623     		movs	r3, #22	@ tmp138,
 875 0028 6B44     		add	r3, r3, sp	@ tmp138,
 876 002a 1B88     		ldrh	r3, [r3]	@ D.5350, i
 877 002c 9B00     		lsls	r3, r3, #2	@ D.5350, D.5350,
 878 002e 039A     		ldr	r2, [sp, #12]	@ tmp139, p
 879 0030 D318     		adds	r3, r2, r3	@ D.5351, tmp139, D.5350
 880 0032 1A68     		ldr	r2, [r3]	@ D.5350, *_16
 881 0034 029B     		ldr	r3, [sp, #8]	@ tmp140, p_addr
 882 0036 1100     		movs	r1, r2	@, D.5350
 883 0038 1800     		movs	r0, r3	@, tmp140
 884 003a FFF7FEFF 		bl	FLASH_ProgramWord	@
 324:src/flash_program.c **** 		p_addr += 4;
 885              		.loc 1 324 0 discriminator 3
 886 003e 029B     		ldr	r3, [sp, #8]	@ tmp142, p_addr
 887 0040 0433     		adds	r3, r3, #4	@ tmp141,
 888 0042 0293     		str	r3, [sp, #8]	@ tmp141, p_addr
 321:src/flash_program.c **** 	{
 889              		.loc 1 321 0 discriminator 3
 890 0044 1623     		movs	r3, #22	@ tmp143,
 891 0046 6B44     		add	r3, r3, sp	@ tmp143,
 892 0048 1A88     		ldrh	r2, [r3]	@ D.5349, i
 893 004a 1623     		movs	r3, #22	@ tmp144,
 894 004c 6B44     		add	r3, r3, sp	@ tmp144,
 895 004e 0132     		adds	r2, r2, #1	@ tmp145,
 896 0050 1A80     		strh	r2, [r3]	@ tmp146, i
 897              	.L60:
 321:src/flash_program.c **** 	{
 898              		.loc 1 321 0 is_stmt 0 discriminator 1
 899 0052 6B46     		mov	r3, sp	@ tmp177,
 900 0054 0633     		adds	r3, r3, #6	@ tmp147,
 901 0056 1B78     		ldrb	r3, [r3]	@ tmp149, len_in_4
 902 0058 9BB2     		uxth	r3, r3	@ D.5349, tmp148
 903 005a 1622     		movs	r2, #22	@ tmp150,
 904 005c 6A44     		add	r2, r2, sp	@ tmp150,
 905 005e 1288     		ldrh	r2, [r2]	@ tmp151, i
 906 0060 9A42     		cmp	r2, r3	@ tmp151, D.5349
 907 0062 E0D3     		bcc	.L61	@,
 325:src/flash_program.c **** 	}
 326:src/flash_program.c **** 
 327:src/flash_program.c **** 	if (with_lock)
 908              		.loc 1 327 0 is_stmt 1
 909 0064 6B46     		mov	r3, sp	@ tmp179,
 910 0066 0733     		adds	r3, r3, #7	@ tmp152,
 911 0068 1B78     		ldrb	r3, [r3]	@ tmp153, with_lock
 912 006a 002B     		cmp	r3, #0	@ tmp153,
 913 006c 01D0     		beq	.L62	@,
 328:src/flash_program.c **** 		FLASH_Lock();
 914              		.loc 1 328 0
 915 006e FFF7FEFF 		bl	FLASH_Lock	@
 916              	.L62:
ARM GAS  /tmp/ccTGK1Aa.s 			page 23


 329:src/flash_program.c **** 
 330:src/flash_program.c **** 	//verifico memoria
 331:src/flash_program.c **** 	for (i = 0; i < len_in_4; i++)
 917              		.loc 1 331 0
 918 0072 1623     		movs	r3, #22	@ tmp154,
 919 0074 6B44     		add	r3, r3, sp	@ tmp154,
 920 0076 0022     		movs	r2, #0	@ tmp155,
 921 0078 1A80     		strh	r2, [r3]	@ tmp156, i
 922 007a 18E0     		b	.L63	@
 923              	.L66:
 332:src/flash_program.c **** 	{
 333:src/flash_program.c **** 		if (*(p_verif + i) != *(p + i))
 924              		.loc 1 333 0
 925 007c 1623     		movs	r3, #22	@ tmp157,
 926 007e 6B44     		add	r3, r3, sp	@ tmp157,
 927 0080 1B88     		ldrh	r3, [r3]	@ D.5350, i
 928 0082 9B00     		lsls	r3, r3, #2	@ D.5350, D.5350,
 929 0084 049A     		ldr	r2, [sp, #16]	@ tmp158, p_verif
 930 0086 D318     		adds	r3, r2, r3	@ D.5351, tmp158, D.5350
 931 0088 1A68     		ldr	r2, [r3]	@ D.5350, *_28
 932 008a 1623     		movs	r3, #22	@ tmp159,
 933 008c 6B44     		add	r3, r3, sp	@ tmp159,
 934 008e 1B88     		ldrh	r3, [r3]	@ D.5350, i
 935 0090 9B00     		lsls	r3, r3, #2	@ D.5350, D.5350,
 936 0092 0399     		ldr	r1, [sp, #12]	@ tmp160, p
 937 0094 CB18     		adds	r3, r1, r3	@ D.5351, tmp160, D.5350
 938 0096 1B68     		ldr	r3, [r3]	@ D.5350, *_32
 939 0098 9A42     		cmp	r2, r3	@ D.5350, D.5350
 940 009a 01D0     		beq	.L64	@,
 334:src/flash_program.c **** 			return FAILED;
 941              		.loc 1 334 0
 942 009c 0023     		movs	r3, #0	@ D.5348,
 943 009e 10E0     		b	.L65	@
 944              	.L64:
 331:src/flash_program.c **** 	{
 945              		.loc 1 331 0 discriminator 2
 946 00a0 1623     		movs	r3, #22	@ tmp161,
 947 00a2 6B44     		add	r3, r3, sp	@ tmp161,
 948 00a4 1A88     		ldrh	r2, [r3]	@ D.5349, i
 949 00a6 1623     		movs	r3, #22	@ tmp162,
 950 00a8 6B44     		add	r3, r3, sp	@ tmp162,
 951 00aa 0132     		adds	r2, r2, #1	@ tmp163,
 952 00ac 1A80     		strh	r2, [r3]	@ tmp164, i
 953              	.L63:
 331:src/flash_program.c **** 	{
 954              		.loc 1 331 0 is_stmt 0 discriminator 1
 955 00ae 6B46     		mov	r3, sp	@ tmp185,
 956 00b0 0633     		adds	r3, r3, #6	@ tmp165,
 957 00b2 1B78     		ldrb	r3, [r3]	@ tmp167, len_in_4
 958 00b4 9BB2     		uxth	r3, r3	@ D.5349, tmp166
 959 00b6 1622     		movs	r2, #22	@ tmp168,
 960 00b8 6A44     		add	r2, r2, sp	@ tmp168,
 961 00ba 1288     		ldrh	r2, [r2]	@ tmp169, i
 962 00bc 9A42     		cmp	r2, r3	@ tmp169, D.5349
 963 00be DDD3     		bcc	.L66	@,
 335:src/flash_program.c **** 	}
 336:src/flash_program.c **** 	return PASSED;
ARM GAS  /tmp/ccTGK1Aa.s 			page 24


 964              		.loc 1 336 0 is_stmt 1
 965 00c0 0123     		movs	r3, #1	@ D.5348,
 966              	.L65:
 337:src/flash_program.c **** }
 967              		.loc 1 337 0
 968 00c2 1800     		movs	r0, r3	@, <retval>
 969 00c4 07B0     		add	sp, sp, #28	@,,
 970              		@ sp needed	@
 971 00c6 00BD     		pop	{pc}
 972              		.cfi_endproc
 973              	.LFE31:
 974              		.size	WriteFlash, .-WriteFlash
 975              		.section	.text.GetFlashConf,"ax",%progbits
 976              		.align	2
 977              		.global	GetFlashConf
 978              		.code	16
 979              		.thumb_func
 980              		.type	GetFlashConf, %function
 981              	GetFlashConf:
 982              	.LFB32:
 338:src/flash_program.c **** 
 339:src/flash_program.c **** void GetFlashConf (parameters_typedef * p_ram)
 340:src/flash_program.c **** {
 983              		.loc 1 340 0
 984              		.cfi_startproc
 985 0000 00B5     		push	{lr}	@
 986              	.LCFI18:
 987              		.cfi_def_cfa_offset 4
 988              		.cfi_offset 14, -4
 989 0002 83B0     		sub	sp, sp, #12	@,,
 990              	.LCFI19:
 991              		.cfi_def_cfa_offset 16
 992 0004 0190     		str	r0, [sp, #4]	@ p_ram, p_ram
 341:src/flash_program.c **** 	//memoria no vacia
 342:src/flash_program.c **** 	strncpy( p_ram->num_reportar,
 993              		.loc 1 342 0
 994 0006 019B     		ldr	r3, [sp, #4]	@ D.5352, p_ram
 995 0008 0B49     		ldr	r1, .L68	@ tmp117,
 996 000a 1822     		movs	r2, #24	@,
 997 000c 1800     		movs	r0, r3	@, D.5352
 998 000e FFF7FEFF 		bl	strncpy	@
 343:src/flash_program.c **** 				((parameters_typedef *) (char *) PAGE63)->num_reportar,
 344:src/flash_program.c **** 				sizeof(param_struct.num_reportar));
 345:src/flash_program.c **** 
 346:src/flash_program.c **** 	p_ram->acumm_w2s = ((parameters_typedef *) (unsigned int *) PAGE63)->acumm_w2s;
 999              		.loc 1 346 0
 1000 0012 094B     		ldr	r3, .L68	@ D.5353,
 1001 0014 DA6C     		ldr	r2, [r3, #76]	@ D.5354, _5->acumm_w2s
 1002 0016 019B     		ldr	r3, [sp, #4]	@ tmp118, p_ram
 1003 0018 DA64     		str	r2, [r3, #76]	@ D.5354, p_ram_1(D)->acumm_w2s
 347:src/flash_program.c **** 	p_ram->acumm_w2s_index = ((parameters_typedef *) (unsigned short *) PAGE63)->acumm_w2s_index;
 1004              		.loc 1 347 0
 1005 001a 074A     		ldr	r2, .L68	@ D.5353,
 1006 001c 5023     		movs	r3, #80	@ tmp119,
 1007 001e D15A     		ldrh	r1, [r2, r3]	@ D.5355,
 1008 0020 019B     		ldr	r3, [sp, #4]	@ tmp120, p_ram
 1009 0022 5022     		movs	r2, #80	@ tmp121,
ARM GAS  /tmp/ccTGK1Aa.s 			page 25


 1010 0024 9952     		strh	r1, [r3, r2]	@ tmp122, p_ram_1(D)->acumm_w2s_index
 348:src/flash_program.c **** 	p_ram->timer_reportar = ((parameters_typedef *) (unsigned char *) PAGE63)->timer_reportar;
 1011              		.loc 1 348 0
 1012 0026 044A     		ldr	r2, .L68	@ D.5353,
 1013 0028 5223     		movs	r3, #82	@ tmp123,
 1014 002a D15C     		ldrb	r1, [r2, r3]	@ D.5356,
 1015 002c 019B     		ldr	r3, [sp, #4]	@ tmp124, p_ram
 1016 002e 5222     		movs	r2, #82	@ tmp125,
 1017 0030 9954     		strb	r1, [r3, r2]	@ tmp126, p_ram_1(D)->timer_reportar
 349:src/flash_program.c **** 
 350:src/flash_program.c **** }
 1018              		.loc 1 350 0
 1019 0032 C046     		nop
 1020 0034 03B0     		add	sp, sp, #12	@,,
 1021              		@ sp needed	@
 1022 0036 00BD     		pop	{pc}
 1023              	.L69:
 1024              		.align	2
 1025              	.L68:
 1026 0038 00FC0008 		.word	134282240
 1027              		.cfi_endproc
 1028              	.LFE32:
 1029              		.size	GetFlashConf, .-GetFlashConf
 1030              		.text
 1031              	.Letext0:
 1032              		.file 2 "/usr/local/sbin/gcc-arm-none-eabi-5_2-2015q4/arm-none-eabi/include/machine/_default_types
 1033              		.file 3 "/usr/local/sbin/gcc-arm-none-eabi-5_2-2015q4/arm-none-eabi/include/sys/_stdint.h"
 1034              		.file 4 "./cmsis_boot/stm32f0xx.h"
 1035              		.file 5 "src/flash_program.h"