ARM GAS  /tmp/ccD5vHri.s 			page 1


   1              		.syntax unified
   2              		.cpu cortex-m0
   3              		.fpu softvfp
   4              		.eabi_attribute 20, 1	@ Tag_ABI_FP_denormal
   5              		.eabi_attribute 21, 1	@ Tag_ABI_FP_exceptions
   6              		.eabi_attribute 23, 3	@ Tag_ABI_FP_number_model
   7              		.eabi_attribute 24, 1	@ Tag_ABI_align8_needed
   8              		.eabi_attribute 25, 1	@ Tag_ABI_align8_preserved
   9              		.eabi_attribute 26, 1	@ Tag_ABI_enum_size
  10              		.eabi_attribute 30, 6	@ Tag_ABI_optimization_goals
  11              		.eabi_attribute 34, 0	@ Tag_CPU_unaligned_access
  12              		.eabi_attribute 18, 4	@ Tag_ABI_PCS_wchar_t
  13              		.file	"tim.c"
  14              	@ GNU C11 (GNU Tools for ARM Embedded Processors) version 5.2.1 20151202 (release) [ARM/embedded-5-
  15              	@	compiled by GNU C version 4.7.4, GMP version 4.3.2, MPFR version 2.4.2, MPC version 0.8.1
  16              	@ GGC heuristics: --param ggc-min-expand=100 --param ggc-min-heapsize=131072
  17              	@ options passed:  -I . -I ./src -I ./cmsis_boot -I ./cmsis_core
  18              	@ -imultilib armv6-m
  19              	@ -iprefix /usr/local/sbin/gcc-arm-none-eabi-5_2-2015q4/bin/../lib/gcc/arm-none-eabi/5.2.1/
  20              	@ -isysroot /usr/local/sbin/gcc-arm-none-eabi-5_2-2015q4/bin/../arm-none-eabi
  21              	@ -D__USES_INITFINI__ -D STM32F030 src/tim.c -mcpu=cortex-m0 -mthumb
  22              	@ -auxbase-strip src/tim.o -g -gdwarf-2 -O0 -Wall -fomit-frame-pointer
  23              	@ -fdata-sections -ffunction-sections -fverbose-asm
  24              	@ options enabled:  -faggressive-loop-optimizations -fauto-inc-dec
  25              	@ -fchkp-check-incomplete-type -fchkp-check-read -fchkp-check-write
  26              	@ -fchkp-instrument-calls -fchkp-narrow-bounds -fchkp-optimize
  27              	@ -fchkp-store-bounds -fchkp-use-static-bounds
  28              	@ -fchkp-use-static-const-bounds -fchkp-use-wrappers -fcommon
  29              	@ -fdata-sections -fdelete-null-pointer-checks -fdwarf2-cfi-asm
  30              	@ -fearly-inlining -feliminate-unused-debug-types -ffunction-cse
  31              	@ -ffunction-sections -fgcse-lm -fgnu-runtime -fgnu-unique -fident
  32              	@ -finline-atomics -fira-hoist-pressure -fira-share-save-slots
  33              	@ -fira-share-spill-slots -fivopts -fkeep-static-consts
  34              	@ -fleading-underscore -flifetime-dse -flto-odr-type-merging -fmath-errno
  35              	@ -fmerge-debug-strings -fomit-frame-pointer -fpeephole
  36              	@ -fprefetch-loop-arrays -freg-struct-return
  37              	@ -fsched-critical-path-heuristic -fsched-dep-count-heuristic
  38              	@ -fsched-group-heuristic -fsched-interblock -fsched-last-insn-heuristic
  39              	@ -fsched-rank-heuristic -fsched-spec -fsched-spec-insn-heuristic
  40              	@ -fsched-stalled-insns-dep -fsemantic-interposition -fshow-column
  41              	@ -fsigned-zeros -fsplit-ivs-in-unroller -fstdarg-opt
  42              	@ -fstrict-volatile-bitfields -fsync-libcalls -ftrapping-math
  43              	@ -ftree-coalesce-vars -ftree-cselim -ftree-forwprop -ftree-loop-if-convert
  44              	@ -ftree-loop-im -ftree-loop-ivcanon -ftree-loop-optimize
  45              	@ -ftree-parallelize-loops= -ftree-phiprop -ftree-reassoc -ftree-scev-cprop
  46              	@ -funit-at-a-time -fverbose-asm -fzero-initialized-in-bss -mlittle-endian
  47              	@ -mpic-data-is-text-relative -msched-prolog -mthumb
  48              	@ -mvectorize-with-neon-quad
  49              	
  50              		.text
  51              	.Ltext0:
  52              		.cfi_sections	.debug_frame
  53              		.section	.text.NVIC_EnableIRQ,"ax",%progbits
  54              		.align	2
  55              		.code	16
  56              		.thumb_func
  57              		.type	NVIC_EnableIRQ, %function
ARM GAS  /tmp/ccD5vHri.s 			page 2


  58              	NVIC_EnableIRQ:
  59              	.LFB11:
  60              		.file 1 "./cmsis_core/core_cm0.h"
   1:./cmsis_core/core_cm0.h **** /**************************************************************************//**
   2:./cmsis_core/core_cm0.h ****  * @file     core_cm0.h
   3:./cmsis_core/core_cm0.h ****  * @brief    CMSIS Cortex-M0 Core Peripheral Access Layer Header File
   4:./cmsis_core/core_cm0.h ****  * @version  V1.30
   5:./cmsis_core/core_cm0.h ****  * @date     30. October 2009
   6:./cmsis_core/core_cm0.h ****  *
   7:./cmsis_core/core_cm0.h ****  * @note
   8:./cmsis_core/core_cm0.h ****  * Copyright (C) 2009 ARM Limited. All rights reserved.
   9:./cmsis_core/core_cm0.h ****  *
  10:./cmsis_core/core_cm0.h ****  * @par
  11:./cmsis_core/core_cm0.h ****  * ARM Limited (ARM) is supplying this software for use with Cortex-M 
  12:./cmsis_core/core_cm0.h ****  * processor based microcontrollers.  This file can be freely distributed 
  13:./cmsis_core/core_cm0.h ****  * within development tools that are supporting such ARM based processors. 
  14:./cmsis_core/core_cm0.h ****  *
  15:./cmsis_core/core_cm0.h ****  * @par
  16:./cmsis_core/core_cm0.h ****  * THIS SOFTWARE IS PROVIDED "AS IS".  NO WARRANTIES, WHETHER EXPRESS, IMPLIED
  17:./cmsis_core/core_cm0.h ****  * OR STATUTORY, INCLUDING, BUT NOT LIMITED TO, IMPLIED WARRANTIES OF
  18:./cmsis_core/core_cm0.h ****  * MERCHANTABILITY AND FITNESS FOR A PARTICULAR PURPOSE APPLY TO THIS SOFTWARE.
  19:./cmsis_core/core_cm0.h ****  * ARM SHALL NOT, IN ANY CIRCUMSTANCES, BE LIABLE FOR SPECIAL, INCIDENTAL, OR
  20:./cmsis_core/core_cm0.h ****  * CONSEQUENTIAL DAMAGES, FOR ANY REASON WHATSOEVER.
  21:./cmsis_core/core_cm0.h ****  *
  22:./cmsis_core/core_cm0.h ****  ******************************************************************************/
  23:./cmsis_core/core_cm0.h **** 
  24:./cmsis_core/core_cm0.h **** #ifndef __CM0_CORE_H__
  25:./cmsis_core/core_cm0.h **** #define __CM0_CORE_H__
  26:./cmsis_core/core_cm0.h **** 
  27:./cmsis_core/core_cm0.h **** /** @addtogroup CMSIS_CM0_core_LintCinfiguration CMSIS CM0 Core Lint Configuration
  28:./cmsis_core/core_cm0.h ****  *
  29:./cmsis_core/core_cm0.h ****  * List of Lint messages which will be suppressed and not shown:
  30:./cmsis_core/core_cm0.h ****  *   - not yet checked
  31:./cmsis_core/core_cm0.h ****  * .
  32:./cmsis_core/core_cm0.h ****  * Note:  To re-enable a Message, insert a space before 'lint' *
  33:./cmsis_core/core_cm0.h ****  *
  34:./cmsis_core/core_cm0.h ****  */
  35:./cmsis_core/core_cm0.h **** 
  36:./cmsis_core/core_cm0.h **** 
  37:./cmsis_core/core_cm0.h **** /** @addtogroup CMSIS_CM0_core_definitions CM0 Core Definitions
  38:./cmsis_core/core_cm0.h ****   This file defines all structures and symbols for CMSIS core:
  39:./cmsis_core/core_cm0.h ****     - CMSIS version number
  40:./cmsis_core/core_cm0.h ****     - Cortex-M core registers and bitfields
  41:./cmsis_core/core_cm0.h ****     - Cortex-M core peripheral base address
  42:./cmsis_core/core_cm0.h ****   @{
  43:./cmsis_core/core_cm0.h ****  */
  44:./cmsis_core/core_cm0.h **** 
  45:./cmsis_core/core_cm0.h **** #ifdef __cplusplus
  46:./cmsis_core/core_cm0.h ****  extern "C" {
  47:./cmsis_core/core_cm0.h **** #endif 
  48:./cmsis_core/core_cm0.h **** 
  49:./cmsis_core/core_cm0.h **** #define __CM0_CMSIS_VERSION_MAIN  (0x01)                                                       /*!<
  50:./cmsis_core/core_cm0.h **** #define __CM0_CMSIS_VERSION_SUB   (0x30)                                                       /*!<
  51:./cmsis_core/core_cm0.h **** #define __CM0_CMSIS_VERSION       ((__CM0_CMSIS_VERSION_MAIN << 16) | __CM0_CMSIS_VERSION_SUB) /*!<
  52:./cmsis_core/core_cm0.h **** 
  53:./cmsis_core/core_cm0.h **** #define __CORTEX_M                (0x00)                                                       /*!<
  54:./cmsis_core/core_cm0.h **** 
ARM GAS  /tmp/ccD5vHri.s 			page 3


  55:./cmsis_core/core_cm0.h **** #include <stdint.h>                           /* Include standard types */
  56:./cmsis_core/core_cm0.h **** 
  57:./cmsis_core/core_cm0.h **** #if defined (__ICCARM__)
  58:./cmsis_core/core_cm0.h ****   #include <intrinsics.h>                     /* IAR Intrinsics   */
  59:./cmsis_core/core_cm0.h **** #endif
  60:./cmsis_core/core_cm0.h **** 
  61:./cmsis_core/core_cm0.h **** 
  62:./cmsis_core/core_cm0.h **** #ifndef __NVIC_PRIO_BITS
  63:./cmsis_core/core_cm0.h ****   #define __NVIC_PRIO_BITS    2               /*!< standard definition for NVIC Priority Bits */
  64:./cmsis_core/core_cm0.h **** #endif
  65:./cmsis_core/core_cm0.h **** 
  66:./cmsis_core/core_cm0.h **** 
  67:./cmsis_core/core_cm0.h **** 
  68:./cmsis_core/core_cm0.h **** 
  69:./cmsis_core/core_cm0.h **** /**
  70:./cmsis_core/core_cm0.h ****  * IO definitions
  71:./cmsis_core/core_cm0.h ****  *
  72:./cmsis_core/core_cm0.h ****  * define access restrictions to peripheral registers
  73:./cmsis_core/core_cm0.h ****  */
  74:./cmsis_core/core_cm0.h **** 
  75:./cmsis_core/core_cm0.h **** #ifdef __cplusplus
  76:./cmsis_core/core_cm0.h ****   #define     __I     volatile                /*!< defines 'read only' permissions      */
  77:./cmsis_core/core_cm0.h **** #else
  78:./cmsis_core/core_cm0.h ****   #define     __I     volatile const          /*!< defines 'read only' permissions      */
  79:./cmsis_core/core_cm0.h **** #endif
  80:./cmsis_core/core_cm0.h **** #define     __O     volatile                  /*!< defines 'write only' permissions     */
  81:./cmsis_core/core_cm0.h **** #define     __IO    volatile                  /*!< defines 'read / write' permissions   */
  82:./cmsis_core/core_cm0.h **** 
  83:./cmsis_core/core_cm0.h **** 
  84:./cmsis_core/core_cm0.h **** 
  85:./cmsis_core/core_cm0.h **** /*******************************************************************************
  86:./cmsis_core/core_cm0.h ****  *                 Register Abstraction
  87:./cmsis_core/core_cm0.h ****  ******************************************************************************/
  88:./cmsis_core/core_cm0.h **** /** @addtogroup CMSIS_CM0_core_register CMSIS CM0 Core Register
  89:./cmsis_core/core_cm0.h ****  @{
  90:./cmsis_core/core_cm0.h **** */
  91:./cmsis_core/core_cm0.h **** 
  92:./cmsis_core/core_cm0.h **** 
  93:./cmsis_core/core_cm0.h **** /** @addtogroup CMSIS_CM0_NVIC CMSIS CM0 NVIC
  94:./cmsis_core/core_cm0.h ****   memory mapped structure for Nested Vectored Interrupt Controller (NVIC)
  95:./cmsis_core/core_cm0.h ****   @{
  96:./cmsis_core/core_cm0.h ****  */
  97:./cmsis_core/core_cm0.h ****  /*
  98:./cmsis_core/core_cm0.h **** typedef struct
  99:./cmsis_core/core_cm0.h **** {
 100:./cmsis_core/core_cm0.h ****   __IO uint32_t ISER[1];                      //!< (Offset: 0x000) Interrupt Set Enable Register
 101:./cmsis_core/core_cm0.h ****        uint32_t RESERVED0[31];
 102:./cmsis_core/core_cm0.h ****   __IO uint32_t ICER[1];                      //!< (Offset: 0x080) Interrupt Clear Enable Register
 103:./cmsis_core/core_cm0.h ****        uint32_t RSERVED1[31];
 104:./cmsis_core/core_cm0.h ****   __IO uint32_t ISPR[1];                      //!< (Offset: 0x100) Interrupt Set Pending Register
 105:./cmsis_core/core_cm0.h ****        uint32_t RESERVED2[31];
 106:./cmsis_core/core_cm0.h ****   __IO uint32_t ICPR[1];                      //!< (Offset: 0x180) Interrupt Clear Pending Register
 107:./cmsis_core/core_cm0.h ****        uint32_t RESERVED3[31];
 108:./cmsis_core/core_cm0.h ****        uint32_t RESERVED4[64];
 109:./cmsis_core/core_cm0.h ****   __IO uint32_t IPR[8];                       //!< (Offset: 0x3EC) Interrupt Priority Register
 110:./cmsis_core/core_cm0.h **** }  NVIC_Type;
 111:./cmsis_core/core_cm0.h **** */
ARM GAS  /tmp/ccD5vHri.s 			page 4


 112:./cmsis_core/core_cm0.h **** 
 113:./cmsis_core/core_cm0.h ****  typedef struct
 114:./cmsis_core/core_cm0.h ****  {
 115:./cmsis_core/core_cm0.h ****    __IO uint32_t ISER[1];                 /*!< Offset: 0x000 (R/W)  Interrupt Set Enable Register  
 116:./cmsis_core/core_cm0.h ****         uint32_t RESERVED0[31];
 117:./cmsis_core/core_cm0.h ****    __IO uint32_t ICER[1];                 /*!< Offset: 0x080 (R/W)  Interrupt Clear Enable Register
 118:./cmsis_core/core_cm0.h ****         uint32_t RSERVED1[31];
 119:./cmsis_core/core_cm0.h ****    __IO uint32_t ISPR[1];                 /*!< Offset: 0x100 (R/W)  Interrupt Set Pending Register 
 120:./cmsis_core/core_cm0.h ****         uint32_t RESERVED2[31];
 121:./cmsis_core/core_cm0.h ****    __IO uint32_t ICPR[1];                 /*!< Offset: 0x180 (R/W)  Interrupt Clear Pending Registe
 122:./cmsis_core/core_cm0.h ****         uint32_t RESERVED3[31];
 123:./cmsis_core/core_cm0.h ****         uint32_t RESERVED4[64];
 124:./cmsis_core/core_cm0.h ****    __IO uint32_t IP[8];                   /*!< Offset: 0x300 (R/W)  Interrupt Priority Register    
 125:./cmsis_core/core_cm0.h ****  }  NVIC_Type;
 126:./cmsis_core/core_cm0.h **** 
 127:./cmsis_core/core_cm0.h **** /*@}*/ /* end of group CMSIS_CM0_NVIC */
 128:./cmsis_core/core_cm0.h **** 
 129:./cmsis_core/core_cm0.h **** 
 130:./cmsis_core/core_cm0.h **** /** @addtogroup CMSIS_CM0_SCB CMSIS CM0 SCB
 131:./cmsis_core/core_cm0.h ****   memory mapped structure for System Control Block (SCB)
 132:./cmsis_core/core_cm0.h ****   @{
 133:./cmsis_core/core_cm0.h ****  */
 134:./cmsis_core/core_cm0.h **** typedef struct
 135:./cmsis_core/core_cm0.h **** {
 136:./cmsis_core/core_cm0.h ****   __I  uint32_t CPUID;                        /*!< Offset: 0x00  CPU ID Base Register              
 137:./cmsis_core/core_cm0.h ****   __IO uint32_t ICSR;                         /*!< Offset: 0x04  Interrupt Control State Register  
 138:./cmsis_core/core_cm0.h ****        uint32_t RESERVED0;                                      
 139:./cmsis_core/core_cm0.h ****   __IO uint32_t AIRCR;                        /*!< Offset: 0x0C  Application Interrupt / Reset Cont
 140:./cmsis_core/core_cm0.h ****   __IO uint32_t SCR;                          /*!< Offset: 0x10  System Control Register           
 141:./cmsis_core/core_cm0.h ****   __IO uint32_t CCR;                          /*!< Offset: 0x14  Configuration Control Register    
 142:./cmsis_core/core_cm0.h ****        uint32_t RESERVED1;                                      
 143:./cmsis_core/core_cm0.h ****   __IO uint32_t SHP[2];                       /*!< Offset: 0x1C  System Handlers Priority Registers
 144:./cmsis_core/core_cm0.h ****   __IO uint32_t SHCSR;                        /*!< Offset: 0x24  System Handler Control and State R
 145:./cmsis_core/core_cm0.h ****        uint32_t RESERVED2[2];                                   
 146:./cmsis_core/core_cm0.h ****   __IO uint32_t DFSR;                         /*!< Offset: 0x30  Debug Fault Status Register       
 147:./cmsis_core/core_cm0.h **** } SCB_Type;                                                
 148:./cmsis_core/core_cm0.h **** 
 149:./cmsis_core/core_cm0.h **** /* SCB CPUID Register Definitions */
 150:./cmsis_core/core_cm0.h **** #define SCB_CPUID_IMPLEMENTER_Pos          24                                             /*!< SCB 
 151:./cmsis_core/core_cm0.h **** #define SCB_CPUID_IMPLEMENTER_Msk          (0xFFul << SCB_CPUID_IMPLEMENTER_Pos)          /*!< SCB 
 152:./cmsis_core/core_cm0.h **** 
 153:./cmsis_core/core_cm0.h **** #define SCB_CPUID_VARIANT_Pos              20                                             /*!< SCB 
 154:./cmsis_core/core_cm0.h **** #define SCB_CPUID_VARIANT_Msk              (0xFul << SCB_CPUID_VARIANT_Pos)               /*!< SCB 
 155:./cmsis_core/core_cm0.h **** 
 156:./cmsis_core/core_cm0.h **** #define SCB_CPUID_ARCHITECTURE_Pos         16                                             /*!< SCB 
 157:./cmsis_core/core_cm0.h **** #define SCB_CPUID_ARCHITECTURE_Msk         (0xFul << SCB_CPUID_ARCHITECTURE_Pos)          /*!< SCB 
 158:./cmsis_core/core_cm0.h **** 
 159:./cmsis_core/core_cm0.h **** #define SCB_CPUID_PARTNO_Pos                4                                             /*!< SCB 
 160:./cmsis_core/core_cm0.h **** #define SCB_CPUID_PARTNO_Msk               (0xFFFul << SCB_CPUID_PARTNO_Pos)              /*!< SCB 
 161:./cmsis_core/core_cm0.h **** 
 162:./cmsis_core/core_cm0.h **** #define SCB_CPUID_REVISION_Pos              0                                             /*!< SCB 
 163:./cmsis_core/core_cm0.h **** #define SCB_CPUID_REVISION_Msk             (0xFul << SCB_CPUID_REVISION_Pos)              /*!< SCB 
 164:./cmsis_core/core_cm0.h **** 
 165:./cmsis_core/core_cm0.h **** /* SCB Interrupt Control State Register Definitions */
 166:./cmsis_core/core_cm0.h **** #define SCB_ICSR_NMIPENDSET_Pos            31                                             /*!< SCB 
 167:./cmsis_core/core_cm0.h **** #define SCB_ICSR_NMIPENDSET_Msk            (1ul << SCB_ICSR_NMIPENDSET_Pos)               /*!< SCB 
 168:./cmsis_core/core_cm0.h **** 
ARM GAS  /tmp/ccD5vHri.s 			page 5


 169:./cmsis_core/core_cm0.h **** #define SCB_ICSR_PENDSVSET_Pos             28                                             /*!< SCB 
 170:./cmsis_core/core_cm0.h **** #define SCB_ICSR_PENDSVSET_Msk             (1ul << SCB_ICSR_PENDSVSET_Pos)                /*!< SCB 
 171:./cmsis_core/core_cm0.h **** 
 172:./cmsis_core/core_cm0.h **** #define SCB_ICSR_PENDSVCLR_Pos             27                                             /*!< SCB 
 173:./cmsis_core/core_cm0.h **** #define SCB_ICSR_PENDSVCLR_Msk             (1ul << SCB_ICSR_PENDSVCLR_Pos)                /*!< SCB 
 174:./cmsis_core/core_cm0.h **** 
 175:./cmsis_core/core_cm0.h **** #define SCB_ICSR_PENDSTSET_Pos             26                                             /*!< SCB 
 176:./cmsis_core/core_cm0.h **** #define SCB_ICSR_PENDSTSET_Msk             (1ul << SCB_ICSR_PENDSTSET_Pos)                /*!< SCB 
 177:./cmsis_core/core_cm0.h **** 
 178:./cmsis_core/core_cm0.h **** #define SCB_ICSR_PENDSTCLR_Pos             25                                             /*!< SCB 
 179:./cmsis_core/core_cm0.h **** #define SCB_ICSR_PENDSTCLR_Msk             (1ul << SCB_ICSR_PENDSTCLR_Pos)                /*!< SCB 
 180:./cmsis_core/core_cm0.h **** 
 181:./cmsis_core/core_cm0.h **** #define SCB_ICSR_ISRPREEMPT_Pos            23                                             /*!< SCB 
 182:./cmsis_core/core_cm0.h **** #define SCB_ICSR_ISRPREEMPT_Msk            (1ul << SCB_ICSR_ISRPREEMPT_Pos)               /*!< SCB 
 183:./cmsis_core/core_cm0.h **** 
 184:./cmsis_core/core_cm0.h **** #define SCB_ICSR_ISRPENDING_Pos            22                                             /*!< SCB 
 185:./cmsis_core/core_cm0.h **** #define SCB_ICSR_ISRPENDING_Msk            (1ul << SCB_ICSR_ISRPENDING_Pos)               /*!< SCB 
 186:./cmsis_core/core_cm0.h **** 
 187:./cmsis_core/core_cm0.h **** #define SCB_ICSR_VECTPENDING_Pos           12                                             /*!< SCB 
 188:./cmsis_core/core_cm0.h **** #define SCB_ICSR_VECTPENDING_Msk           (0x1FFul << SCB_ICSR_VECTPENDING_Pos)          /*!< SCB 
 189:./cmsis_core/core_cm0.h **** 
 190:./cmsis_core/core_cm0.h **** #define SCB_ICSR_VECTACTIVE_Pos             0                                             /*!< SCB 
 191:./cmsis_core/core_cm0.h **** #define SCB_ICSR_VECTACTIVE_Msk            (0x1FFul << SCB_ICSR_VECTACTIVE_Pos)           /*!< SCB 
 192:./cmsis_core/core_cm0.h **** 
 193:./cmsis_core/core_cm0.h **** /* SCB Application Interrupt and Reset Control Register Definitions */
 194:./cmsis_core/core_cm0.h **** #define SCB_AIRCR_VECTKEY_Pos              16                                             /*!< SCB 
 195:./cmsis_core/core_cm0.h **** #define SCB_AIRCR_VECTKEY_Msk              (0xFFFFul << SCB_AIRCR_VECTKEY_Pos)            /*!< SCB 
 196:./cmsis_core/core_cm0.h **** 
 197:./cmsis_core/core_cm0.h **** #define SCB_AIRCR_VECTKEYSTAT_Pos          16                                             /*!< SCB 
 198:./cmsis_core/core_cm0.h **** #define SCB_AIRCR_VECTKEYSTAT_Msk          (0xFFFFul << SCB_AIRCR_VECTKEYSTAT_Pos)        /*!< SCB 
 199:./cmsis_core/core_cm0.h **** 
 200:./cmsis_core/core_cm0.h **** #define SCB_AIRCR_ENDIANESS_Pos            15                                             /*!< SCB 
 201:./cmsis_core/core_cm0.h **** #define SCB_AIRCR_ENDIANESS_Msk            (1ul << SCB_AIRCR_ENDIANESS_Pos)               /*!< SCB 
 202:./cmsis_core/core_cm0.h **** 
 203:./cmsis_core/core_cm0.h **** #define SCB_AIRCR_SYSRESETREQ_Pos           2                                             /*!< SCB 
 204:./cmsis_core/core_cm0.h **** #define SCB_AIRCR_SYSRESETREQ_Msk          (1ul << SCB_AIRCR_SYSRESETREQ_Pos)             /*!< SCB 
 205:./cmsis_core/core_cm0.h **** 
 206:./cmsis_core/core_cm0.h **** #define SCB_AIRCR_VECTCLRACTIVE_Pos         1                                             /*!< SCB 
 207:./cmsis_core/core_cm0.h **** #define SCB_AIRCR_VECTCLRACTIVE_Msk        (1ul << SCB_AIRCR_VECTCLRACTIVE_Pos)           /*!< SCB 
 208:./cmsis_core/core_cm0.h **** 
 209:./cmsis_core/core_cm0.h **** /* SCB System Control Register Definitions */
 210:./cmsis_core/core_cm0.h **** #define SCB_SCR_SEVONPEND_Pos               4                                             /*!< SCB 
 211:./cmsis_core/core_cm0.h **** #define SCB_SCR_SEVONPEND_Msk              (1ul << SCB_SCR_SEVONPEND_Pos)                 /*!< SCB 
 212:./cmsis_core/core_cm0.h **** 
 213:./cmsis_core/core_cm0.h **** #define SCB_SCR_SLEEPDEEP_Pos               2                                             /*!< SCB 
 214:./cmsis_core/core_cm0.h **** #define SCB_SCR_SLEEPDEEP_Msk              (1ul << SCB_SCR_SLEEPDEEP_Pos)                 /*!< SCB 
 215:./cmsis_core/core_cm0.h **** 
 216:./cmsis_core/core_cm0.h **** #define SCB_SCR_SLEEPONEXIT_Pos             1                                             /*!< SCB 
 217:./cmsis_core/core_cm0.h **** #define SCB_SCR_SLEEPONEXIT_Msk            (1ul << SCB_SCR_SLEEPONEXIT_Pos)               /*!< SCB 
 218:./cmsis_core/core_cm0.h **** 
 219:./cmsis_core/core_cm0.h **** /* SCB Configuration Control Register Definitions */
 220:./cmsis_core/core_cm0.h **** #define SCB_CCR_STKALIGN_Pos                9                                             /*!< SCB 
 221:./cmsis_core/core_cm0.h **** #define SCB_CCR_STKALIGN_Msk               (1ul << SCB_CCR_STKALIGN_Pos)                  /*!< SCB 
 222:./cmsis_core/core_cm0.h **** 
 223:./cmsis_core/core_cm0.h **** #define SCB_CCR_UNALIGN_TRP_Pos             3                                             /*!< SCB 
 224:./cmsis_core/core_cm0.h **** #define SCB_CCR_UNALIGN_TRP_Msk            (1ul << SCB_CCR_UNALIGN_TRP_Pos)               /*!< SCB 
 225:./cmsis_core/core_cm0.h **** 
ARM GAS  /tmp/ccD5vHri.s 			page 6


 226:./cmsis_core/core_cm0.h **** /* SCB System Handler Control and State Register Definitions */
 227:./cmsis_core/core_cm0.h **** #define SCB_SHCSR_SVCALLPENDED_Pos         15                                             /*!< SCB 
 228:./cmsis_core/core_cm0.h **** #define SCB_SHCSR_SVCALLPENDED_Msk         (1ul << SCB_SHCSR_SVCALLPENDED_Pos)            /*!< SCB 
 229:./cmsis_core/core_cm0.h **** 
 230:./cmsis_core/core_cm0.h **** /* SCB Debug Fault Status Register Definitions */
 231:./cmsis_core/core_cm0.h **** #define SCB_DFSR_EXTERNAL_Pos               4                                             /*!< SCB 
 232:./cmsis_core/core_cm0.h **** #define SCB_DFSR_EXTERNAL_Msk              (1ul << SCB_DFSR_EXTERNAL_Pos)                 /*!< SCB 
 233:./cmsis_core/core_cm0.h **** 
 234:./cmsis_core/core_cm0.h **** #define SCB_DFSR_VCATCH_Pos                 3                                             /*!< SCB 
 235:./cmsis_core/core_cm0.h **** #define SCB_DFSR_VCATCH_Msk                (1ul << SCB_DFSR_VCATCH_Pos)                   /*!< SCB 
 236:./cmsis_core/core_cm0.h **** 
 237:./cmsis_core/core_cm0.h **** #define SCB_DFSR_DWTTRAP_Pos                2                                             /*!< SCB 
 238:./cmsis_core/core_cm0.h **** #define SCB_DFSR_DWTTRAP_Msk               (1ul << SCB_DFSR_DWTTRAP_Pos)                  /*!< SCB 
 239:./cmsis_core/core_cm0.h **** 
 240:./cmsis_core/core_cm0.h **** #define SCB_DFSR_BKPT_Pos                   1                                             /*!< SCB 
 241:./cmsis_core/core_cm0.h **** #define SCB_DFSR_BKPT_Msk                  (1ul << SCB_DFSR_BKPT_Pos)                     /*!< SCB 
 242:./cmsis_core/core_cm0.h **** 
 243:./cmsis_core/core_cm0.h **** #define SCB_DFSR_HALTED_Pos                 0                                             /*!< SCB 
 244:./cmsis_core/core_cm0.h **** #define SCB_DFSR_HALTED_Msk                (1ul << SCB_DFSR_HALTED_Pos)                   /*!< SCB 
 245:./cmsis_core/core_cm0.h **** /*@}*/ /* end of group CMSIS_CM0_SCB */
 246:./cmsis_core/core_cm0.h **** 
 247:./cmsis_core/core_cm0.h **** 
 248:./cmsis_core/core_cm0.h **** /** @addtogroup CMSIS_CM0_SysTick CMSIS CM0 SysTick
 249:./cmsis_core/core_cm0.h ****   memory mapped structure for SysTick
 250:./cmsis_core/core_cm0.h ****   @{
 251:./cmsis_core/core_cm0.h ****  */
 252:./cmsis_core/core_cm0.h **** typedef struct
 253:./cmsis_core/core_cm0.h **** {
 254:./cmsis_core/core_cm0.h ****   __IO uint32_t CTRL;                         /*!< Offset: 0x00  SysTick Control and Status Registe
 255:./cmsis_core/core_cm0.h ****   __IO uint32_t LOAD;                         /*!< Offset: 0x04  SysTick Reload Value Register     
 256:./cmsis_core/core_cm0.h ****   __IO uint32_t VAL;                          /*!< Offset: 0x08  SysTick Current Value Register    
 257:./cmsis_core/core_cm0.h ****   __I  uint32_t CALIB;                        /*!< Offset: 0x0C  SysTick Calibration Register      
 258:./cmsis_core/core_cm0.h **** } SysTick_Type;
 259:./cmsis_core/core_cm0.h **** 
 260:./cmsis_core/core_cm0.h **** /* SysTick Control / Status Register Definitions */
 261:./cmsis_core/core_cm0.h **** #define SysTick_CTRL_COUNTFLAG_Pos         16                                             /*!< SysT
 262:./cmsis_core/core_cm0.h **** #define SysTick_CTRL_COUNTFLAG_Msk         (1ul << SysTick_CTRL_COUNTFLAG_Pos)            /*!< SysT
 263:./cmsis_core/core_cm0.h **** 
 264:./cmsis_core/core_cm0.h **** #define SysTick_CTRL_CLKSOURCE_Pos          2                                             /*!< SysT
 265:./cmsis_core/core_cm0.h **** #define SysTick_CTRL_CLKSOURCE_Msk         (1ul << SysTick_CTRL_CLKSOURCE_Pos)            /*!< SysT
 266:./cmsis_core/core_cm0.h **** 
 267:./cmsis_core/core_cm0.h **** #define SysTick_CTRL_TICKINT_Pos            1                                             /*!< SysT
 268:./cmsis_core/core_cm0.h **** #define SysTick_CTRL_TICKINT_Msk           (1ul << SysTick_CTRL_TICKINT_Pos)              /*!< SysT
 269:./cmsis_core/core_cm0.h **** 
 270:./cmsis_core/core_cm0.h **** #define SysTick_CTRL_ENABLE_Pos             0                                             /*!< SysT
 271:./cmsis_core/core_cm0.h **** #define SysTick_CTRL_ENABLE_Msk            (1ul << SysTick_CTRL_ENABLE_Pos)               /*!< SysT
 272:./cmsis_core/core_cm0.h **** 
 273:./cmsis_core/core_cm0.h **** /* SysTick Reload Register Definitions */
 274:./cmsis_core/core_cm0.h **** #define SysTick_LOAD_RELOAD_Pos             0                                             /*!< SysT
 275:./cmsis_core/core_cm0.h **** #define SysTick_LOAD_RELOAD_Msk            (0xFFFFFFul << SysTick_LOAD_RELOAD_Pos)        /*!< SysT
 276:./cmsis_core/core_cm0.h **** 
 277:./cmsis_core/core_cm0.h **** /* SysTick Current Register Definitions */
 278:./cmsis_core/core_cm0.h **** #define SysTick_VAL_CURRENT_Pos             0                                             /*!< SysT
 279:./cmsis_core/core_cm0.h **** #define SysTick_VAL_CURRENT_Msk            (0xFFFFFFul << SysTick_VAL_CURRENT_Pos)        /*!< SysT
 280:./cmsis_core/core_cm0.h **** 
 281:./cmsis_core/core_cm0.h **** /* SysTick Calibration Register Definitions */
 282:./cmsis_core/core_cm0.h **** #define SysTick_CALIB_NOREF_Pos            31                                             /*!< SysT
ARM GAS  /tmp/ccD5vHri.s 			page 7


 283:./cmsis_core/core_cm0.h **** #define SysTick_CALIB_NOREF_Msk            (1ul << SysTick_CALIB_NOREF_Pos)               /*!< SysT
 284:./cmsis_core/core_cm0.h **** 
 285:./cmsis_core/core_cm0.h **** #define SysTick_CALIB_SKEW_Pos             30                                             /*!< SysT
 286:./cmsis_core/core_cm0.h **** #define SysTick_CALIB_SKEW_Msk             (1ul << SysTick_CALIB_SKEW_Pos)                /*!< SysT
 287:./cmsis_core/core_cm0.h **** 
 288:./cmsis_core/core_cm0.h **** #define SysTick_CALIB_TENMS_Pos             0                                             /*!< SysT
 289:./cmsis_core/core_cm0.h **** #define SysTick_CALIB_TENMS_Msk            (0xFFFFFFul << SysTick_VAL_CURRENT_Pos)        /*!< SysT
 290:./cmsis_core/core_cm0.h **** /*@}*/ /* end of group CMSIS_CM0_SysTick */
 291:./cmsis_core/core_cm0.h **** 
 292:./cmsis_core/core_cm0.h **** 
 293:./cmsis_core/core_cm0.h **** /** @addtogroup CMSIS_CM0_CoreDebug CMSIS CM0 Core Debug
 294:./cmsis_core/core_cm0.h ****   memory mapped structure for Core Debug Register
 295:./cmsis_core/core_cm0.h ****   @{
 296:./cmsis_core/core_cm0.h ****  */
 297:./cmsis_core/core_cm0.h **** typedef struct
 298:./cmsis_core/core_cm0.h **** {
 299:./cmsis_core/core_cm0.h ****   __IO uint32_t DHCSR;                        /*!< Offset: 0x00  Debug Halting Control and Status R
 300:./cmsis_core/core_cm0.h ****   __O  uint32_t DCRSR;                        /*!< Offset: 0x04  Debug Core Register Selector Regis
 301:./cmsis_core/core_cm0.h ****   __IO uint32_t DCRDR;                        /*!< Offset: 0x08  Debug Core Register Data Register 
 302:./cmsis_core/core_cm0.h ****   __IO uint32_t DEMCR;                        /*!< Offset: 0x0C  Debug Exception and Monitor Contro
 303:./cmsis_core/core_cm0.h **** } CoreDebug_Type;
 304:./cmsis_core/core_cm0.h **** 
 305:./cmsis_core/core_cm0.h **** /* Debug Halting Control and Status Register */
 306:./cmsis_core/core_cm0.h **** #define CoreDebug_DHCSR_DBGKEY_Pos         16                                             /*!< Core
 307:./cmsis_core/core_cm0.h **** #define CoreDebug_DHCSR_DBGKEY_Msk         (0xFFFFul << CoreDebug_DHCSR_DBGKEY_Pos)       /*!< Core
 308:./cmsis_core/core_cm0.h **** 
 309:./cmsis_core/core_cm0.h **** #define CoreDebug_DHCSR_S_RESET_ST_Pos     25                                             /*!< Core
 310:./cmsis_core/core_cm0.h **** #define CoreDebug_DHCSR_S_RESET_ST_Msk     (1ul << CoreDebug_DHCSR_S_RESET_ST_Pos)        /*!< Core
 311:./cmsis_core/core_cm0.h **** 
 312:./cmsis_core/core_cm0.h **** #define CoreDebug_DHCSR_S_RETIRE_ST_Pos    24                                             /*!< Core
 313:./cmsis_core/core_cm0.h **** #define CoreDebug_DHCSR_S_RETIRE_ST_Msk    (1ul << CoreDebug_DHCSR_S_RETIRE_ST_Pos)       /*!< Core
 314:./cmsis_core/core_cm0.h **** 
 315:./cmsis_core/core_cm0.h **** #define CoreDebug_DHCSR_S_LOCKUP_Pos       19                                             /*!< Core
 316:./cmsis_core/core_cm0.h **** #define CoreDebug_DHCSR_S_LOCKUP_Msk       (1ul << CoreDebug_DHCSR_S_LOCKUP_Pos)          /*!< Core
 317:./cmsis_core/core_cm0.h **** 
 318:./cmsis_core/core_cm0.h **** #define CoreDebug_DHCSR_S_SLEEP_Pos        18                                             /*!< Core
 319:./cmsis_core/core_cm0.h **** #define CoreDebug_DHCSR_S_SLEEP_Msk        (1ul << CoreDebug_DHCSR_S_SLEEP_Pos)           /*!< Core
 320:./cmsis_core/core_cm0.h **** 
 321:./cmsis_core/core_cm0.h **** #define CoreDebug_DHCSR_S_HALT_Pos         17                                             /*!< Core
 322:./cmsis_core/core_cm0.h **** #define CoreDebug_DHCSR_S_HALT_Msk         (1ul << CoreDebug_DHCSR_S_HALT_Pos)            /*!< Core
 323:./cmsis_core/core_cm0.h **** 
 324:./cmsis_core/core_cm0.h **** #define CoreDebug_DHCSR_S_REGRDY_Pos       16                                             /*!< Core
 325:./cmsis_core/core_cm0.h **** #define CoreDebug_DHCSR_S_REGRDY_Msk       (1ul << CoreDebug_DHCSR_S_REGRDY_Pos)          /*!< Core
 326:./cmsis_core/core_cm0.h **** 
 327:./cmsis_core/core_cm0.h **** #define CoreDebug_DHCSR_C_MASKINTS_Pos      3                                             /*!< Core
 328:./cmsis_core/core_cm0.h **** #define CoreDebug_DHCSR_C_MASKINTS_Msk     (1ul << CoreDebug_DHCSR_C_MASKINTS_Pos)        /*!< Core
 329:./cmsis_core/core_cm0.h **** 
 330:./cmsis_core/core_cm0.h **** #define CoreDebug_DHCSR_C_STEP_Pos          2                                             /*!< Core
 331:./cmsis_core/core_cm0.h **** #define CoreDebug_DHCSR_C_STEP_Msk         (1ul << CoreDebug_DHCSR_C_STEP_Pos)            /*!< Core
 332:./cmsis_core/core_cm0.h **** 
 333:./cmsis_core/core_cm0.h **** #define CoreDebug_DHCSR_C_HALT_Pos          1                                             /*!< Core
 334:./cmsis_core/core_cm0.h **** #define CoreDebug_DHCSR_C_HALT_Msk         (1ul << CoreDebug_DHCSR_C_HALT_Pos)            /*!< Core
 335:./cmsis_core/core_cm0.h **** 
 336:./cmsis_core/core_cm0.h **** #define CoreDebug_DHCSR_C_DEBUGEN_Pos       0                                             /*!< Core
 337:./cmsis_core/core_cm0.h **** #define CoreDebug_DHCSR_C_DEBUGEN_Msk      (1ul << CoreDebug_DHCSR_C_DEBUGEN_Pos)         /*!< Core
 338:./cmsis_core/core_cm0.h **** 
 339:./cmsis_core/core_cm0.h **** /* Debug Core Register Selector Register */
ARM GAS  /tmp/ccD5vHri.s 			page 8


 340:./cmsis_core/core_cm0.h **** #define CoreDebug_DCRSR_REGWnR_Pos         16                                             /*!< Core
 341:./cmsis_core/core_cm0.h **** #define CoreDebug_DCRSR_REGWnR_Msk         (1ul << CoreDebug_DCRSR_REGWnR_Pos)            /*!< Core
 342:./cmsis_core/core_cm0.h **** 
 343:./cmsis_core/core_cm0.h **** #define CoreDebug_DCRSR_REGSEL_Pos          0                                             /*!< Core
 344:./cmsis_core/core_cm0.h **** #define CoreDebug_DCRSR_REGSEL_Msk         (0x1Ful << CoreDebug_DCRSR_REGSEL_Pos)         /*!< Core
 345:./cmsis_core/core_cm0.h **** 
 346:./cmsis_core/core_cm0.h **** /* Debug Exception and Monitor Control Register */
 347:./cmsis_core/core_cm0.h **** #define CoreDebug_DEMCR_DWTENA_Pos         24                                             /*!< Core
 348:./cmsis_core/core_cm0.h **** #define CoreDebug_DEMCR_DWTENA_Msk         (1ul << CoreDebug_DEMCR_DWTENA_Pos)            /*!< Core
 349:./cmsis_core/core_cm0.h **** 
 350:./cmsis_core/core_cm0.h **** #define CoreDebug_DEMCR_VC_HARDERR_Pos     10                                             /*!< Core
 351:./cmsis_core/core_cm0.h **** #define CoreDebug_DEMCR_VC_HARDERR_Msk     (1ul << CoreDebug_DEMCR_VC_HARDERR_Pos)        /*!< Core
 352:./cmsis_core/core_cm0.h **** 
 353:./cmsis_core/core_cm0.h **** #define CoreDebug_DEMCR_VC_CORERESET_Pos    0                                             /*!< Core
 354:./cmsis_core/core_cm0.h **** #define CoreDebug_DEMCR_VC_CORERESET_Msk   (1ul << CoreDebug_DEMCR_VC_CORERESET_Pos)      /*!< Core
 355:./cmsis_core/core_cm0.h **** /*@}*/ /* end of group CMSIS_CM0_CoreDebug */
 356:./cmsis_core/core_cm0.h **** 
 357:./cmsis_core/core_cm0.h **** 
 358:./cmsis_core/core_cm0.h **** /* Memory mapping of Cortex-M0 Hardware */
 359:./cmsis_core/core_cm0.h **** #define SCS_BASE            (0xE000E000)                              /*!< System Control Space Bas
 360:./cmsis_core/core_cm0.h **** #define CoreDebug_BASE      (0xE000EDF0)                              /*!< Core Debug Base Address 
 361:./cmsis_core/core_cm0.h **** #define SysTick_BASE        (SCS_BASE +  0x0010)                      /*!< SysTick Base Address    
 362:./cmsis_core/core_cm0.h **** #define NVIC_BASE           (SCS_BASE +  0x0100)                      /*!< NVIC Base Address       
 363:./cmsis_core/core_cm0.h **** #define SCB_BASE            (SCS_BASE +  0x0D00)                      /*!< System Control Block Bas
 364:./cmsis_core/core_cm0.h **** 
 365:./cmsis_core/core_cm0.h **** #define SCB                 ((SCB_Type *)           SCB_BASE)         /*!< SCB configuration struct
 366:./cmsis_core/core_cm0.h **** #define SysTick             ((SysTick_Type *)       SysTick_BASE)     /*!< SysTick configuration st
 367:./cmsis_core/core_cm0.h **** #define NVIC                ((NVIC_Type *)          NVIC_BASE)        /*!< NVIC configuration struc
 368:./cmsis_core/core_cm0.h **** #define CoreDebug           ((CoreDebug_Type *)     CoreDebug_BASE)   /*!< Core Debug configuration
 369:./cmsis_core/core_cm0.h **** 
 370:./cmsis_core/core_cm0.h **** /*@}*/ /* end of group CMSIS_CM0_core_register */
 371:./cmsis_core/core_cm0.h **** 
 372:./cmsis_core/core_cm0.h **** 
 373:./cmsis_core/core_cm0.h **** /*******************************************************************************
 374:./cmsis_core/core_cm0.h ****  *                Hardware Abstraction Layer
 375:./cmsis_core/core_cm0.h ****  ******************************************************************************/
 376:./cmsis_core/core_cm0.h **** 
 377:./cmsis_core/core_cm0.h **** #if defined ( __CC_ARM   )
 378:./cmsis_core/core_cm0.h ****   #define __ASM            __asm                                      /*!< asm keyword for ARM Comp
 379:./cmsis_core/core_cm0.h ****   #define __INLINE         __inline                                   /*!< inline keyword for ARM C
 380:./cmsis_core/core_cm0.h **** 
 381:./cmsis_core/core_cm0.h **** #elif defined ( __ICCARM__ )
 382:./cmsis_core/core_cm0.h ****   #define __ASM           __asm                                       /*!< asm keyword for IAR Comp
 383:./cmsis_core/core_cm0.h ****   #define __INLINE        inline                                      /*!< inline keyword for IAR C
 384:./cmsis_core/core_cm0.h **** 
 385:./cmsis_core/core_cm0.h **** #elif defined   (  __GNUC__  )
 386:./cmsis_core/core_cm0.h ****   #define __ASM            __asm                                      /*!< asm keyword for GNU Comp
 387:./cmsis_core/core_cm0.h ****   #define __INLINE         inline                                     /*!< inline keyword for GNU C
 388:./cmsis_core/core_cm0.h **** 
 389:./cmsis_core/core_cm0.h **** #elif defined   (  __TASKING__  )
 390:./cmsis_core/core_cm0.h ****   #define __ASM            __asm                                      /*!< asm keyword for TASKING 
 391:./cmsis_core/core_cm0.h ****   #define __INLINE         inline                                     /*!< inline keyword for TASKI
 392:./cmsis_core/core_cm0.h **** 
 393:./cmsis_core/core_cm0.h **** #endif
 394:./cmsis_core/core_cm0.h **** 
 395:./cmsis_core/core_cm0.h **** 
 396:./cmsis_core/core_cm0.h **** /* ###################  Compiler specific Intrinsics  ########################### */
ARM GAS  /tmp/ccD5vHri.s 			page 9


 397:./cmsis_core/core_cm0.h **** 
 398:./cmsis_core/core_cm0.h **** #if defined ( __CC_ARM   ) /*------------------RealView Compiler -----------------*/
 399:./cmsis_core/core_cm0.h **** /* ARM armcc specific functions */
 400:./cmsis_core/core_cm0.h **** 
 401:./cmsis_core/core_cm0.h **** #define __enable_fault_irq                __enable_fiq
 402:./cmsis_core/core_cm0.h **** #define __disable_fault_irq               __disable_fiq
 403:./cmsis_core/core_cm0.h **** 
 404:./cmsis_core/core_cm0.h **** #define __NOP                             __nop
 405:./cmsis_core/core_cm0.h **** #define __WFI                             __wfi
 406:./cmsis_core/core_cm0.h **** #define __WFE                             __wfe
 407:./cmsis_core/core_cm0.h **** #define __SEV                             __sev
 408:./cmsis_core/core_cm0.h **** #define __ISB()                           __isb(0)
 409:./cmsis_core/core_cm0.h **** #define __DSB()                           __dsb(0)
 410:./cmsis_core/core_cm0.h **** #define __DMB()                           __dmb(0)
 411:./cmsis_core/core_cm0.h **** #define __REV                             __rev
 412:./cmsis_core/core_cm0.h **** 
 413:./cmsis_core/core_cm0.h **** 
 414:./cmsis_core/core_cm0.h **** /* intrinsic void __enable_irq();     */
 415:./cmsis_core/core_cm0.h **** /* intrinsic void __disable_irq();    */
 416:./cmsis_core/core_cm0.h **** 
 417:./cmsis_core/core_cm0.h **** 
 418:./cmsis_core/core_cm0.h **** /**
 419:./cmsis_core/core_cm0.h ****  * @brief  Return the Process Stack Pointer
 420:./cmsis_core/core_cm0.h ****  *
 421:./cmsis_core/core_cm0.h ****  * @return ProcessStackPointer
 422:./cmsis_core/core_cm0.h ****  *
 423:./cmsis_core/core_cm0.h ****  * Return the actual process stack pointer
 424:./cmsis_core/core_cm0.h ****  */
 425:./cmsis_core/core_cm0.h **** extern uint32_t __get_PSP(void);
 426:./cmsis_core/core_cm0.h **** 
 427:./cmsis_core/core_cm0.h **** /**
 428:./cmsis_core/core_cm0.h ****  * @brief  Set the Process Stack Pointer
 429:./cmsis_core/core_cm0.h ****  *
 430:./cmsis_core/core_cm0.h ****  * @param  topOfProcStack  Process Stack Pointer
 431:./cmsis_core/core_cm0.h ****  *
 432:./cmsis_core/core_cm0.h ****  * Assign the value ProcessStackPointer to the MSP 
 433:./cmsis_core/core_cm0.h ****  * (process stack pointer) Cortex processor register
 434:./cmsis_core/core_cm0.h ****  */
 435:./cmsis_core/core_cm0.h **** extern void __set_PSP(uint32_t topOfProcStack);
 436:./cmsis_core/core_cm0.h **** 
 437:./cmsis_core/core_cm0.h **** /**
 438:./cmsis_core/core_cm0.h ****  * @brief  Return the Main Stack Pointer
 439:./cmsis_core/core_cm0.h ****  *
 440:./cmsis_core/core_cm0.h ****  * @return Main Stack Pointer
 441:./cmsis_core/core_cm0.h ****  *
 442:./cmsis_core/core_cm0.h ****  * Return the current value of the MSP (main stack pointer)
 443:./cmsis_core/core_cm0.h ****  * Cortex processor register
 444:./cmsis_core/core_cm0.h ****  */
 445:./cmsis_core/core_cm0.h **** extern uint32_t __get_MSP(void);
 446:./cmsis_core/core_cm0.h **** 
 447:./cmsis_core/core_cm0.h **** /**
 448:./cmsis_core/core_cm0.h ****  * @brief  Set the Main Stack Pointer
 449:./cmsis_core/core_cm0.h ****  *
 450:./cmsis_core/core_cm0.h ****  * @param  topOfMainStack  Main Stack Pointer
 451:./cmsis_core/core_cm0.h ****  *
 452:./cmsis_core/core_cm0.h ****  * Assign the value mainStackPointer to the MSP 
 453:./cmsis_core/core_cm0.h ****  * (main stack pointer) Cortex processor register
ARM GAS  /tmp/ccD5vHri.s 			page 10


 454:./cmsis_core/core_cm0.h ****  */
 455:./cmsis_core/core_cm0.h **** extern void __set_MSP(uint32_t topOfMainStack);
 456:./cmsis_core/core_cm0.h **** 
 457:./cmsis_core/core_cm0.h **** /**
 458:./cmsis_core/core_cm0.h ****  * @brief  Reverse byte order in unsigned short value
 459:./cmsis_core/core_cm0.h ****  *
 460:./cmsis_core/core_cm0.h ****  * @param   value  value to reverse
 461:./cmsis_core/core_cm0.h ****  * @return         reversed value
 462:./cmsis_core/core_cm0.h ****  *
 463:./cmsis_core/core_cm0.h ****  * Reverse byte order in unsigned short value
 464:./cmsis_core/core_cm0.h ****  */
 465:./cmsis_core/core_cm0.h **** extern uint32_t __REV16(uint16_t value);
 466:./cmsis_core/core_cm0.h **** 
 467:./cmsis_core/core_cm0.h **** /**
 468:./cmsis_core/core_cm0.h ****  * @brief  Reverse byte order in signed short value with sign extension to integer
 469:./cmsis_core/core_cm0.h ****  *
 470:./cmsis_core/core_cm0.h ****  * @param   value  value to reverse
 471:./cmsis_core/core_cm0.h ****  * @return         reversed value
 472:./cmsis_core/core_cm0.h ****  *
 473:./cmsis_core/core_cm0.h ****  * Reverse byte order in signed short value with sign extension to integer
 474:./cmsis_core/core_cm0.h ****  */
 475:./cmsis_core/core_cm0.h **** extern int32_t __REVSH(int16_t value);
 476:./cmsis_core/core_cm0.h **** 
 477:./cmsis_core/core_cm0.h **** 
 478:./cmsis_core/core_cm0.h **** #if (__ARMCC_VERSION < 400000)
 479:./cmsis_core/core_cm0.h **** 
 480:./cmsis_core/core_cm0.h **** /**
 481:./cmsis_core/core_cm0.h ****  * @brief  Return the Priority Mask value
 482:./cmsis_core/core_cm0.h ****  *
 483:./cmsis_core/core_cm0.h ****  * @return PriMask
 484:./cmsis_core/core_cm0.h ****  *
 485:./cmsis_core/core_cm0.h ****  * Return state of the priority mask bit from the priority mask register
 486:./cmsis_core/core_cm0.h ****  */
 487:./cmsis_core/core_cm0.h **** extern uint32_t __get_PRIMASK(void);
 488:./cmsis_core/core_cm0.h **** 
 489:./cmsis_core/core_cm0.h **** /**
 490:./cmsis_core/core_cm0.h ****  * @brief  Set the Priority Mask value
 491:./cmsis_core/core_cm0.h ****  *
 492:./cmsis_core/core_cm0.h ****  * @param   priMask  PriMask
 493:./cmsis_core/core_cm0.h ****  *
 494:./cmsis_core/core_cm0.h ****  * Set the priority mask bit in the priority mask register
 495:./cmsis_core/core_cm0.h ****  */
 496:./cmsis_core/core_cm0.h **** extern void __set_PRIMASK(uint32_t priMask);
 497:./cmsis_core/core_cm0.h **** 
 498:./cmsis_core/core_cm0.h **** /**
 499:./cmsis_core/core_cm0.h ****  * @brief  Return the Control Register value
 500:./cmsis_core/core_cm0.h ****  * 
 501:./cmsis_core/core_cm0.h ****  * @return Control value
 502:./cmsis_core/core_cm0.h ****  *
 503:./cmsis_core/core_cm0.h ****  * Return the content of the control register
 504:./cmsis_core/core_cm0.h ****  */
 505:./cmsis_core/core_cm0.h **** extern uint32_t __get_CONTROL(void);
 506:./cmsis_core/core_cm0.h **** 
 507:./cmsis_core/core_cm0.h **** /**
 508:./cmsis_core/core_cm0.h ****  * @brief  Set the Control Register value
 509:./cmsis_core/core_cm0.h ****  *
 510:./cmsis_core/core_cm0.h ****  * @param  control  Control value
ARM GAS  /tmp/ccD5vHri.s 			page 11


 511:./cmsis_core/core_cm0.h ****  *
 512:./cmsis_core/core_cm0.h ****  * Set the control register
 513:./cmsis_core/core_cm0.h ****  */
 514:./cmsis_core/core_cm0.h **** extern void __set_CONTROL(uint32_t control);
 515:./cmsis_core/core_cm0.h **** 
 516:./cmsis_core/core_cm0.h **** #else  /* (__ARMCC_VERSION >= 400000)  */
 517:./cmsis_core/core_cm0.h **** 
 518:./cmsis_core/core_cm0.h **** 
 519:./cmsis_core/core_cm0.h **** /**
 520:./cmsis_core/core_cm0.h ****  * @brief  Return the Priority Mask value
 521:./cmsis_core/core_cm0.h ****  *
 522:./cmsis_core/core_cm0.h ****  * @return PriMask
 523:./cmsis_core/core_cm0.h ****  *
 524:./cmsis_core/core_cm0.h ****  * Return state of the priority mask bit from the priority mask register
 525:./cmsis_core/core_cm0.h ****  */
 526:./cmsis_core/core_cm0.h **** static __INLINE uint32_t __get_PRIMASK(void)
 527:./cmsis_core/core_cm0.h **** {
 528:./cmsis_core/core_cm0.h ****   register uint32_t __regPriMask         __ASM("primask");
 529:./cmsis_core/core_cm0.h ****   return(__regPriMask);
 530:./cmsis_core/core_cm0.h **** }
 531:./cmsis_core/core_cm0.h **** 
 532:./cmsis_core/core_cm0.h **** /**
 533:./cmsis_core/core_cm0.h ****  * @brief  Set the Priority Mask value
 534:./cmsis_core/core_cm0.h ****  *
 535:./cmsis_core/core_cm0.h ****  * @param  priMask  PriMask
 536:./cmsis_core/core_cm0.h ****  *
 537:./cmsis_core/core_cm0.h ****  * Set the priority mask bit in the priority mask register
 538:./cmsis_core/core_cm0.h ****  */
 539:./cmsis_core/core_cm0.h **** static __INLINE void __set_PRIMASK(uint32_t priMask)
 540:./cmsis_core/core_cm0.h **** {
 541:./cmsis_core/core_cm0.h ****   register uint32_t __regPriMask         __ASM("primask");
 542:./cmsis_core/core_cm0.h ****   __regPriMask = (priMask);
 543:./cmsis_core/core_cm0.h **** }
 544:./cmsis_core/core_cm0.h **** 
 545:./cmsis_core/core_cm0.h **** /**
 546:./cmsis_core/core_cm0.h ****  * @brief  Return the Control Register value
 547:./cmsis_core/core_cm0.h ****  * 
 548:./cmsis_core/core_cm0.h ****  * @return Control value
 549:./cmsis_core/core_cm0.h ****  *
 550:./cmsis_core/core_cm0.h ****  * Return the content of the control register
 551:./cmsis_core/core_cm0.h ****  */
 552:./cmsis_core/core_cm0.h **** static __INLINE uint32_t __get_CONTROL(void)
 553:./cmsis_core/core_cm0.h **** {
 554:./cmsis_core/core_cm0.h ****   register uint32_t __regControl         __ASM("control");
 555:./cmsis_core/core_cm0.h ****   return(__regControl);
 556:./cmsis_core/core_cm0.h **** }
 557:./cmsis_core/core_cm0.h **** 
 558:./cmsis_core/core_cm0.h **** /**
 559:./cmsis_core/core_cm0.h ****  * @brief  Set the Control Register value
 560:./cmsis_core/core_cm0.h ****  *
 561:./cmsis_core/core_cm0.h ****  * @param  control  Control value
 562:./cmsis_core/core_cm0.h ****  *
 563:./cmsis_core/core_cm0.h ****  * Set the control register
 564:./cmsis_core/core_cm0.h ****  */
 565:./cmsis_core/core_cm0.h **** static __INLINE void __set_CONTROL(uint32_t control)
 566:./cmsis_core/core_cm0.h **** {
 567:./cmsis_core/core_cm0.h ****   register uint32_t __regControl         __ASM("control");
ARM GAS  /tmp/ccD5vHri.s 			page 12


 568:./cmsis_core/core_cm0.h ****   __regControl = control;
 569:./cmsis_core/core_cm0.h **** }
 570:./cmsis_core/core_cm0.h **** 
 571:./cmsis_core/core_cm0.h **** #endif /* __ARMCC_VERSION  */ 
 572:./cmsis_core/core_cm0.h **** 
 573:./cmsis_core/core_cm0.h **** 
 574:./cmsis_core/core_cm0.h **** 
 575:./cmsis_core/core_cm0.h **** #elif (defined (__ICCARM__)) /*------------------ ICC Compiler -------------------*/
 576:./cmsis_core/core_cm0.h **** /* IAR iccarm specific functions */
 577:./cmsis_core/core_cm0.h **** 
 578:./cmsis_core/core_cm0.h **** #define __enable_irq                              __enable_interrupt        /*!< global Interrupt e
 579:./cmsis_core/core_cm0.h **** #define __disable_irq                             __disable_interrupt       /*!< global Interrupt d
 580:./cmsis_core/core_cm0.h **** 
 581:./cmsis_core/core_cm0.h **** static __INLINE void __enable_fault_irq()         { __ASM ("cpsie f"); }
 582:./cmsis_core/core_cm0.h **** static __INLINE void __disable_fault_irq()        { __ASM ("cpsid f"); }
 583:./cmsis_core/core_cm0.h **** 
 584:./cmsis_core/core_cm0.h **** #define __NOP                                     __no_operation            /*!< no operation intri
 585:./cmsis_core/core_cm0.h **** static __INLINE  void __WFI()                     { __ASM ("wfi"); }
 586:./cmsis_core/core_cm0.h **** static __INLINE  void __WFE()                     { __ASM ("wfe"); }
 587:./cmsis_core/core_cm0.h **** static __INLINE  void __SEV()                     { __ASM ("sev"); }
 588:./cmsis_core/core_cm0.h **** 
 589:./cmsis_core/core_cm0.h **** /* intrinsic void __ISB(void)                                     */
 590:./cmsis_core/core_cm0.h **** /* intrinsic void __DSB(void)                                     */
 591:./cmsis_core/core_cm0.h **** /* intrinsic void __DMB(void)                                     */
 592:./cmsis_core/core_cm0.h **** /* intrinsic void __set_PRIMASK();                                */
 593:./cmsis_core/core_cm0.h **** /* intrinsic void __get_PRIMASK();                                */
 594:./cmsis_core/core_cm0.h **** 
 595:./cmsis_core/core_cm0.h **** 
 596:./cmsis_core/core_cm0.h **** /* intrinsic uint32_t __REV(uint32_t value);                      */
 597:./cmsis_core/core_cm0.h **** /* intrinsic uint32_t __REVSH(uint32_t value);                    */
 598:./cmsis_core/core_cm0.h **** 
 599:./cmsis_core/core_cm0.h **** 
 600:./cmsis_core/core_cm0.h **** /**
 601:./cmsis_core/core_cm0.h ****  * @brief  Return the Process Stack Pointer
 602:./cmsis_core/core_cm0.h ****  *
 603:./cmsis_core/core_cm0.h ****  * @return ProcessStackPointer
 604:./cmsis_core/core_cm0.h ****  *
 605:./cmsis_core/core_cm0.h ****  * Return the actual process stack pointer
 606:./cmsis_core/core_cm0.h ****  */
 607:./cmsis_core/core_cm0.h **** extern uint32_t __get_PSP(void);
 608:./cmsis_core/core_cm0.h **** 
 609:./cmsis_core/core_cm0.h **** /**
 610:./cmsis_core/core_cm0.h ****  * @brief  Set the Process Stack Pointer
 611:./cmsis_core/core_cm0.h ****  *
 612:./cmsis_core/core_cm0.h ****  * @param  topOfProcStack  Process Stack Pointer
 613:./cmsis_core/core_cm0.h ****  *
 614:./cmsis_core/core_cm0.h ****  * Assign the value ProcessStackPointer to the MSP 
 615:./cmsis_core/core_cm0.h ****  * (process stack pointer) Cortex processor register
 616:./cmsis_core/core_cm0.h ****  */
 617:./cmsis_core/core_cm0.h **** extern void __set_PSP(uint32_t topOfProcStack);
 618:./cmsis_core/core_cm0.h **** 
 619:./cmsis_core/core_cm0.h **** /**
 620:./cmsis_core/core_cm0.h ****  * @brief  Return the Main Stack Pointer
 621:./cmsis_core/core_cm0.h ****  *
 622:./cmsis_core/core_cm0.h ****  * @return Main Stack Pointer
 623:./cmsis_core/core_cm0.h ****  *
 624:./cmsis_core/core_cm0.h ****  * Return the current value of the MSP (main stack pointer)
ARM GAS  /tmp/ccD5vHri.s 			page 13


 625:./cmsis_core/core_cm0.h ****  * Cortex processor register
 626:./cmsis_core/core_cm0.h ****  */
 627:./cmsis_core/core_cm0.h **** extern uint32_t __get_MSP(void);
 628:./cmsis_core/core_cm0.h **** 
 629:./cmsis_core/core_cm0.h **** /**
 630:./cmsis_core/core_cm0.h ****  * @brief  Set the Main Stack Pointer
 631:./cmsis_core/core_cm0.h ****  *
 632:./cmsis_core/core_cm0.h ****  * @param  topOfMainStack  Main Stack Pointer
 633:./cmsis_core/core_cm0.h ****  *
 634:./cmsis_core/core_cm0.h ****  * Assign the value mainStackPointer to the MSP 
 635:./cmsis_core/core_cm0.h ****  * (main stack pointer) Cortex processor register
 636:./cmsis_core/core_cm0.h ****  */
 637:./cmsis_core/core_cm0.h **** extern void __set_MSP(uint32_t topOfMainStack);
 638:./cmsis_core/core_cm0.h **** 
 639:./cmsis_core/core_cm0.h **** /**
 640:./cmsis_core/core_cm0.h ****  * @brief  Reverse byte order in unsigned short value
 641:./cmsis_core/core_cm0.h ****  *
 642:./cmsis_core/core_cm0.h ****  * @param  value  value to reverse
 643:./cmsis_core/core_cm0.h ****  * @return        reversed value
 644:./cmsis_core/core_cm0.h ****  *
 645:./cmsis_core/core_cm0.h ****  * Reverse byte order in unsigned short value
 646:./cmsis_core/core_cm0.h ****  */
 647:./cmsis_core/core_cm0.h **** extern uint32_t __REV16(uint16_t value);
 648:./cmsis_core/core_cm0.h **** 
 649:./cmsis_core/core_cm0.h **** 
 650:./cmsis_core/core_cm0.h **** #elif (defined (__GNUC__)) /*------------------ GNU Compiler ---------------------*/
 651:./cmsis_core/core_cm0.h **** /* GNU gcc specific functions */
 652:./cmsis_core/core_cm0.h **** 
 653:./cmsis_core/core_cm0.h **** static __INLINE void __enable_irq()               { __ASM volatile ("cpsie i"); }
 654:./cmsis_core/core_cm0.h **** static __INLINE void __disable_irq()              { __ASM volatile ("cpsid i"); }
 655:./cmsis_core/core_cm0.h **** 
 656:./cmsis_core/core_cm0.h **** static __INLINE void __enable_fault_irq()         { __ASM volatile ("cpsie f"); }
 657:./cmsis_core/core_cm0.h **** static __INLINE void __disable_fault_irq()        { __ASM volatile ("cpsid f"); }
 658:./cmsis_core/core_cm0.h **** 
 659:./cmsis_core/core_cm0.h **** static __INLINE void __NOP()                      { __ASM volatile ("nop"); }
 660:./cmsis_core/core_cm0.h **** static __INLINE void __WFI()                      { __ASM volatile ("wfi"); }
 661:./cmsis_core/core_cm0.h **** static __INLINE void __WFE()                      { __ASM volatile ("wfe"); }
 662:./cmsis_core/core_cm0.h **** static __INLINE void __SEV()                      { __ASM volatile ("sev"); }
 663:./cmsis_core/core_cm0.h **** static __INLINE void __ISB()                      { __ASM volatile ("isb"); }
 664:./cmsis_core/core_cm0.h **** static __INLINE void __DSB()                      { __ASM volatile ("dsb"); }
 665:./cmsis_core/core_cm0.h **** static __INLINE void __DMB()                      { __ASM volatile ("dmb"); }
 666:./cmsis_core/core_cm0.h **** 
 667:./cmsis_core/core_cm0.h **** 
 668:./cmsis_core/core_cm0.h **** /**
 669:./cmsis_core/core_cm0.h ****  * @brief  Return the Process Stack Pointer
 670:./cmsis_core/core_cm0.h ****  *
 671:./cmsis_core/core_cm0.h ****  * @return ProcessStackPointer
 672:./cmsis_core/core_cm0.h ****  *
 673:./cmsis_core/core_cm0.h ****  * Return the actual process stack pointer
 674:./cmsis_core/core_cm0.h ****  */
 675:./cmsis_core/core_cm0.h **** extern uint32_t __get_PSP(void);
 676:./cmsis_core/core_cm0.h **** 
 677:./cmsis_core/core_cm0.h **** /**
 678:./cmsis_core/core_cm0.h ****  * @brief  Set the Process Stack Pointer
 679:./cmsis_core/core_cm0.h ****  *
 680:./cmsis_core/core_cm0.h ****  * @param  topOfProcStack  Process Stack Pointer
 681:./cmsis_core/core_cm0.h ****  *
ARM GAS  /tmp/ccD5vHri.s 			page 14


 682:./cmsis_core/core_cm0.h ****  * Assign the value ProcessStackPointer to the MSP 
 683:./cmsis_core/core_cm0.h ****  * (process stack pointer) Cortex processor register
 684:./cmsis_core/core_cm0.h ****  */
 685:./cmsis_core/core_cm0.h **** extern void __set_PSP(uint32_t topOfProcStack);
 686:./cmsis_core/core_cm0.h **** 
 687:./cmsis_core/core_cm0.h **** /**
 688:./cmsis_core/core_cm0.h ****  * @brief  Return the Main Stack Pointer
 689:./cmsis_core/core_cm0.h ****  *
 690:./cmsis_core/core_cm0.h ****  * @return Main Stack Pointer
 691:./cmsis_core/core_cm0.h ****  *
 692:./cmsis_core/core_cm0.h ****  * Return the current value of the MSP (main stack pointer)
 693:./cmsis_core/core_cm0.h ****  * Cortex processor register
 694:./cmsis_core/core_cm0.h ****  */
 695:./cmsis_core/core_cm0.h **** extern uint32_t __get_MSP(void);
 696:./cmsis_core/core_cm0.h **** 
 697:./cmsis_core/core_cm0.h **** /**
 698:./cmsis_core/core_cm0.h ****  * @brief  Set the Main Stack Pointer
 699:./cmsis_core/core_cm0.h ****  *
 700:./cmsis_core/core_cm0.h ****  * @param  topOfMainStack  Main Stack Pointer
 701:./cmsis_core/core_cm0.h ****  *
 702:./cmsis_core/core_cm0.h ****  * Assign the value mainStackPointer to the MSP 
 703:./cmsis_core/core_cm0.h ****  * (main stack pointer) Cortex processor register
 704:./cmsis_core/core_cm0.h ****  */
 705:./cmsis_core/core_cm0.h **** extern void __set_MSP(uint32_t topOfMainStack);
 706:./cmsis_core/core_cm0.h **** 
 707:./cmsis_core/core_cm0.h **** /**
 708:./cmsis_core/core_cm0.h ****  * @brief  Return the Priority Mask value
 709:./cmsis_core/core_cm0.h ****  *
 710:./cmsis_core/core_cm0.h ****  * @return PriMask
 711:./cmsis_core/core_cm0.h ****  *
 712:./cmsis_core/core_cm0.h ****  * Return state of the priority mask bit from the priority mask register
 713:./cmsis_core/core_cm0.h ****  */
 714:./cmsis_core/core_cm0.h **** extern uint32_t  __get_PRIMASK(void);
 715:./cmsis_core/core_cm0.h **** 
 716:./cmsis_core/core_cm0.h **** /**
 717:./cmsis_core/core_cm0.h ****  * @brief  Set the Priority Mask value
 718:./cmsis_core/core_cm0.h ****  *
 719:./cmsis_core/core_cm0.h ****  * @param  priMask  PriMask
 720:./cmsis_core/core_cm0.h ****  *
 721:./cmsis_core/core_cm0.h ****  * Set the priority mask bit in the priority mask register
 722:./cmsis_core/core_cm0.h ****  */
 723:./cmsis_core/core_cm0.h **** extern void __set_PRIMASK(uint32_t priMask);
 724:./cmsis_core/core_cm0.h **** 
 725:./cmsis_core/core_cm0.h **** /**
 726:./cmsis_core/core_cm0.h ****  * @brief  Return the Control Register value
 727:./cmsis_core/core_cm0.h **** * 
 728:./cmsis_core/core_cm0.h **** *  @return Control value
 729:./cmsis_core/core_cm0.h ****  *
 730:./cmsis_core/core_cm0.h ****  * Return the content of the control register
 731:./cmsis_core/core_cm0.h ****  */
 732:./cmsis_core/core_cm0.h **** extern uint32_t __get_CONTROL(void);
 733:./cmsis_core/core_cm0.h **** 
 734:./cmsis_core/core_cm0.h **** /**
 735:./cmsis_core/core_cm0.h ****  * @brief  Set the Control Register value
 736:./cmsis_core/core_cm0.h ****  *
 737:./cmsis_core/core_cm0.h ****  * @param  control  Control value
 738:./cmsis_core/core_cm0.h ****  *
ARM GAS  /tmp/ccD5vHri.s 			page 15


 739:./cmsis_core/core_cm0.h ****  * Set the control register
 740:./cmsis_core/core_cm0.h ****  */
 741:./cmsis_core/core_cm0.h **** extern void __set_CONTROL(uint32_t control);
 742:./cmsis_core/core_cm0.h **** 
 743:./cmsis_core/core_cm0.h **** /**
 744:./cmsis_core/core_cm0.h ****  * @brief  Reverse byte order in integer value
 745:./cmsis_core/core_cm0.h ****  *
 746:./cmsis_core/core_cm0.h ****  * @param  value  value to reverse
 747:./cmsis_core/core_cm0.h ****  * @return        reversed value
 748:./cmsis_core/core_cm0.h ****  *
 749:./cmsis_core/core_cm0.h ****  * Reverse byte order in integer value
 750:./cmsis_core/core_cm0.h ****  */
 751:./cmsis_core/core_cm0.h **** extern uint32_t __REV(uint32_t value);
 752:./cmsis_core/core_cm0.h **** 
 753:./cmsis_core/core_cm0.h **** /**
 754:./cmsis_core/core_cm0.h ****  * @brief  Reverse byte order in unsigned short value
 755:./cmsis_core/core_cm0.h ****  *
 756:./cmsis_core/core_cm0.h ****  * @param  value  value to reverse
 757:./cmsis_core/core_cm0.h ****  * @return        reversed value
 758:./cmsis_core/core_cm0.h ****  *
 759:./cmsis_core/core_cm0.h ****  * Reverse byte order in unsigned short value
 760:./cmsis_core/core_cm0.h ****  */
 761:./cmsis_core/core_cm0.h **** extern uint32_t __REV16(uint16_t value);
 762:./cmsis_core/core_cm0.h **** 
 763:./cmsis_core/core_cm0.h **** /**
 764:./cmsis_core/core_cm0.h ****  * @brief  Reverse byte order in signed short value with sign extension to integer
 765:./cmsis_core/core_cm0.h ****  *
 766:./cmsis_core/core_cm0.h ****  * @param  value  value to reverse
 767:./cmsis_core/core_cm0.h ****  * @return        reversed value
 768:./cmsis_core/core_cm0.h ****  *
 769:./cmsis_core/core_cm0.h ****  * Reverse byte order in signed short value with sign extension to integer
 770:./cmsis_core/core_cm0.h ****  */
 771:./cmsis_core/core_cm0.h **** extern int32_t __REVSH(int16_t value);
 772:./cmsis_core/core_cm0.h **** 
 773:./cmsis_core/core_cm0.h **** 
 774:./cmsis_core/core_cm0.h **** #elif (defined (__TASKING__)) /*------------------ TASKING Compiler ---------------------*/
 775:./cmsis_core/core_cm0.h **** /* TASKING carm specific functions */
 776:./cmsis_core/core_cm0.h **** 
 777:./cmsis_core/core_cm0.h **** /*
 778:./cmsis_core/core_cm0.h ****  * The CMSIS functions have been implemented as intrinsics in the compiler.
 779:./cmsis_core/core_cm0.h ****  * Please use "carm -?i" to get an up to date list of all instrinsics,
 780:./cmsis_core/core_cm0.h ****  * Including the CMSIS ones.
 781:./cmsis_core/core_cm0.h ****  */
 782:./cmsis_core/core_cm0.h **** 
 783:./cmsis_core/core_cm0.h **** #endif
 784:./cmsis_core/core_cm0.h **** 
 785:./cmsis_core/core_cm0.h **** 
 786:./cmsis_core/core_cm0.h **** /** @addtogroup CMSIS_CM0_Core_FunctionInterface CMSIS CM0 Core Function Interface
 787:./cmsis_core/core_cm0.h ****   Core  Function Interface containing:
 788:./cmsis_core/core_cm0.h ****   - Core NVIC Functions
 789:./cmsis_core/core_cm0.h ****   - Core SysTick Functions
 790:./cmsis_core/core_cm0.h ****   - Core Reset Functions
 791:./cmsis_core/core_cm0.h **** */
 792:./cmsis_core/core_cm0.h **** /*@{*/
 793:./cmsis_core/core_cm0.h **** 
 794:./cmsis_core/core_cm0.h **** /* ##########################   NVIC functions  #################################### */
 795:./cmsis_core/core_cm0.h **** 
ARM GAS  /tmp/ccD5vHri.s 			page 16


 796:./cmsis_core/core_cm0.h **** /* Interrupt Priorities are WORD accessible only under ARMv6M                   */
 797:./cmsis_core/core_cm0.h **** /* The following MACROS handle generation of the register offset and byte masks */
 798:./cmsis_core/core_cm0.h **** #define _BIT_SHIFT(IRQn)         (  (((uint32_t)(IRQn)       )    &  0x03) * 8 )
 799:./cmsis_core/core_cm0.h **** #define _SHP_IDX(IRQn)           ( ((((uint32_t)(IRQn) & 0x0F)-8) >>    2)     )
 800:./cmsis_core/core_cm0.h **** #define _IP_IDX(IRQn)            (   ((uint32_t)(IRQn)            >>    2)     )
 801:./cmsis_core/core_cm0.h **** 
 802:./cmsis_core/core_cm0.h **** 
 803:./cmsis_core/core_cm0.h **** /**
 804:./cmsis_core/core_cm0.h ****  * @brief  Enable Interrupt in NVIC Interrupt Controller
 805:./cmsis_core/core_cm0.h ****  *
 806:./cmsis_core/core_cm0.h ****  * @param  IRQn   The positive number of the external interrupt to enable
 807:./cmsis_core/core_cm0.h ****  *
 808:./cmsis_core/core_cm0.h ****  * Enable a device specific interupt in the NVIC interrupt controller.
 809:./cmsis_core/core_cm0.h ****  * The interrupt number cannot be a negative value.
 810:./cmsis_core/core_cm0.h ****  */
 811:./cmsis_core/core_cm0.h **** static __INLINE void NVIC_EnableIRQ(IRQn_Type IRQn)
 812:./cmsis_core/core_cm0.h **** {
  61              		.loc 1 812 0
  62              		.cfi_startproc
  63 0000 82B0     		sub	sp, sp, #8	@,,
  64              	.LCFI0:
  65              		.cfi_def_cfa_offset 8
  66 0002 0200     		movs	r2, r0	@ tmp116, IRQn
  67 0004 6B46     		mov	r3, sp	@ tmp122,
  68 0006 0733     		adds	r3, r3, #7	@ tmp117,
  69 0008 1A70     		strb	r2, [r3]	@ tmp118, IRQn
 813:./cmsis_core/core_cm0.h ****   NVIC->ISER[0] = (1 << ((uint32_t)(IRQn) & 0x1F)); /* enable interrupt */
  70              		.loc 1 813 0
  71 000a 074B     		ldr	r3, .L2	@ D.5222,
  72 000c 6A46     		mov	r2, sp	@ tmp123,
  73 000e 0732     		adds	r2, r2, #7	@ tmp119,
  74 0010 1278     		ldrb	r2, [r2]	@ D.5223, IRQn
  75 0012 1100     		movs	r1, r2	@ D.5224, D.5223
  76 0014 1F22     		movs	r2, #31	@ tmp120,
  77 0016 0A40     		ands	r2, r1	@ D.5224, D.5224
  78 0018 0121     		movs	r1, #1	@ tmp121,
  79 001a 9140     		lsls	r1, r1, r2	@ D.5225, D.5225, D.5224
  80 001c 0A00     		movs	r2, r1	@ D.5225, D.5225
  81 001e 1A60     		str	r2, [r3]	@ D.5224, _1->ISER
 814:./cmsis_core/core_cm0.h **** }
  82              		.loc 1 814 0
  83 0020 C046     		nop
  84 0022 02B0     		add	sp, sp, #8	@,,
  85              		@ sp needed	@
  86 0024 7047     		bx	lr
  87              	.L3:
  88 0026 C046     		.align	2
  89              	.L2:
  90 0028 00E100E0 		.word	-536813312
  91              		.cfi_endproc
  92              	.LFE11:
  93              		.size	NVIC_EnableIRQ, .-NVIC_EnableIRQ
  94              		.section	.text.NVIC_SetPriority,"ax",%progbits
  95              		.align	2
  96              		.code	16
  97              		.thumb_func
  98              		.type	NVIC_SetPriority, %function
ARM GAS  /tmp/ccD5vHri.s 			page 17


  99              	NVIC_SetPriority:
 100              	.LFB16:
 815:./cmsis_core/core_cm0.h **** 
 816:./cmsis_core/core_cm0.h **** /**
 817:./cmsis_core/core_cm0.h ****  * @brief  Disable the interrupt line for external interrupt specified
 818:./cmsis_core/core_cm0.h ****  * 
 819:./cmsis_core/core_cm0.h ****  * @param  IRQn   The positive number of the external interrupt to disable
 820:./cmsis_core/core_cm0.h ****  * 
 821:./cmsis_core/core_cm0.h ****  * Disable a device specific interupt in the NVIC interrupt controller.
 822:./cmsis_core/core_cm0.h ****  * The interrupt number cannot be a negative value.
 823:./cmsis_core/core_cm0.h ****  */
 824:./cmsis_core/core_cm0.h **** static __INLINE void NVIC_DisableIRQ(IRQn_Type IRQn)
 825:./cmsis_core/core_cm0.h **** {
 826:./cmsis_core/core_cm0.h ****   NVIC->ICER[0] = (1 << ((uint32_t)(IRQn) & 0x1F)); /* disable interrupt */
 827:./cmsis_core/core_cm0.h **** }
 828:./cmsis_core/core_cm0.h **** 
 829:./cmsis_core/core_cm0.h **** /**
 830:./cmsis_core/core_cm0.h ****  * @brief  Read the interrupt pending bit for a device specific interrupt source
 831:./cmsis_core/core_cm0.h ****  * 
 832:./cmsis_core/core_cm0.h ****  * @param  IRQn    The number of the device specifc interrupt
 833:./cmsis_core/core_cm0.h ****  * @return         1 = interrupt pending, 0 = interrupt not pending
 834:./cmsis_core/core_cm0.h ****  *
 835:./cmsis_core/core_cm0.h ****  * Read the pending register in NVIC and return 1 if its status is pending, 
 836:./cmsis_core/core_cm0.h ****  * otherwise it returns 0
 837:./cmsis_core/core_cm0.h ****  */
 838:./cmsis_core/core_cm0.h **** static __INLINE uint32_t NVIC_GetPendingIRQ(IRQn_Type IRQn)
 839:./cmsis_core/core_cm0.h **** {
 840:./cmsis_core/core_cm0.h ****   return((uint32_t) ((NVIC->ISPR[0] & (1 << ((uint32_t)(IRQn) & 0x1F)))?1:0)); /* Return 1 if pendi
 841:./cmsis_core/core_cm0.h **** }
 842:./cmsis_core/core_cm0.h **** 
 843:./cmsis_core/core_cm0.h **** /**
 844:./cmsis_core/core_cm0.h ****  * @brief  Set the pending bit for an external interrupt
 845:./cmsis_core/core_cm0.h ****  * 
 846:./cmsis_core/core_cm0.h ****  * @param  IRQn    The number of the interrupt for set pending
 847:./cmsis_core/core_cm0.h ****  *
 848:./cmsis_core/core_cm0.h ****  * Set the pending bit for the specified interrupt.
 849:./cmsis_core/core_cm0.h ****  * The interrupt number cannot be a negative value.
 850:./cmsis_core/core_cm0.h ****  */
 851:./cmsis_core/core_cm0.h **** static __INLINE void NVIC_SetPendingIRQ(IRQn_Type IRQn)
 852:./cmsis_core/core_cm0.h **** {
 853:./cmsis_core/core_cm0.h ****   NVIC->ISPR[0] = (1 << ((uint32_t)(IRQn) & 0x1F)); /* set interrupt pending */
 854:./cmsis_core/core_cm0.h **** }
 855:./cmsis_core/core_cm0.h **** 
 856:./cmsis_core/core_cm0.h **** /**
 857:./cmsis_core/core_cm0.h ****  * @brief  Clear the pending bit for an external interrupt
 858:./cmsis_core/core_cm0.h ****  *
 859:./cmsis_core/core_cm0.h ****  * @param  IRQn    The number of the interrupt for clear pending
 860:./cmsis_core/core_cm0.h ****  *
 861:./cmsis_core/core_cm0.h ****  * Clear the pending bit for the specified interrupt. 
 862:./cmsis_core/core_cm0.h ****  * The interrupt number cannot be a negative value.
 863:./cmsis_core/core_cm0.h ****  */
 864:./cmsis_core/core_cm0.h **** static __INLINE void NVIC_ClearPendingIRQ(IRQn_Type IRQn)
 865:./cmsis_core/core_cm0.h **** {
 866:./cmsis_core/core_cm0.h ****   NVIC->ICPR[0] = (1 << ((uint32_t)(IRQn) & 0x1F)); /* Clear pending interrupt */
 867:./cmsis_core/core_cm0.h **** }
 868:./cmsis_core/core_cm0.h **** 
 869:./cmsis_core/core_cm0.h **** /**
ARM GAS  /tmp/ccD5vHri.s 			page 18


 870:./cmsis_core/core_cm0.h ****  * @brief  Set the priority for an interrupt
 871:./cmsis_core/core_cm0.h ****  *
 872:./cmsis_core/core_cm0.h ****  * @param  IRQn      The number of the interrupt for set priority
 873:./cmsis_core/core_cm0.h ****  * @param  priority  The priority to set
 874:./cmsis_core/core_cm0.h ****  *
 875:./cmsis_core/core_cm0.h ****  * Set the priority for the specified interrupt. The interrupt 
 876:./cmsis_core/core_cm0.h ****  * number can be positive to specify an external (device specific) 
 877:./cmsis_core/core_cm0.h ****  * interrupt, or negative to specify an internal (core) interrupt.
 878:./cmsis_core/core_cm0.h ****  *
 879:./cmsis_core/core_cm0.h ****  * Note: The priority cannot be set for every core interrupt.
 880:./cmsis_core/core_cm0.h ****  */
 881:./cmsis_core/core_cm0.h **** /*
 882:./cmsis_core/core_cm0.h **** static __INLINE void NVIC_SetPriority(IRQn_Type IRQn, uint32_t priority)
 883:./cmsis_core/core_cm0.h **** {
 884:./cmsis_core/core_cm0.h ****   if(IRQn < 0) {
 885:./cmsis_core/core_cm0.h ****     SCB->SHP[_SHP_IDX(IRQn)] = (SCB->SHP[_SHP_IDX(IRQn)] & ~(0xFF << _BIT_SHIFT(IRQn))) | 
 886:./cmsis_core/core_cm0.h ****         (((priority << (8 - __NVIC_PRIO_BITS)) & 0xFF) << _BIT_SHIFT(IRQn)); }
 887:./cmsis_core/core_cm0.h ****   else {
 888:./cmsis_core/core_cm0.h ****     NVIC->IPR[_IP_IDX(IRQn)] = (NVIC->IPR[_IP_IDX(IRQn)] & ~(0xFF << _BIT_SHIFT(IRQn))) |
 889:./cmsis_core/core_cm0.h ****         (((priority << (8 - __NVIC_PRIO_BITS)) & 0xFF) << _BIT_SHIFT(IRQn)); }
 890:./cmsis_core/core_cm0.h **** }
 891:./cmsis_core/core_cm0.h **** */
 892:./cmsis_core/core_cm0.h **** static __INLINE void NVIC_SetPriority(IRQn_Type IRQn, uint32_t priority)
 893:./cmsis_core/core_cm0.h **** {
 101              		.loc 1 893 0
 102              		.cfi_startproc
 103 0000 30B5     		push	{r4, r5, lr}	@
 104              	.LCFI1:
 105              		.cfi_def_cfa_offset 12
 106              		.cfi_offset 4, -12
 107              		.cfi_offset 5, -8
 108              		.cfi_offset 14, -4
 109 0002 83B0     		sub	sp, sp, #12	@,,
 110              	.LCFI2:
 111              		.cfi_def_cfa_offset 24
 112 0004 0200     		movs	r2, r0	@ tmp162, IRQn
 113 0006 0091     		str	r1, [sp]	@ priority, priority
 114 0008 6B46     		mov	r3, sp	@ tmp199,
 115 000a 0733     		adds	r3, r3, #7	@ tmp163,
 116 000c 1A70     		strb	r2, [r3]	@ tmp164, IRQn
 894:./cmsis_core/core_cm0.h ****   if(IRQn < 0) {
 117              		.loc 1 894 0
 118 000e 6B46     		mov	r3, sp	@ tmp200,
 119 0010 0733     		adds	r3, r3, #7	@ tmp165,
 120 0012 1B78     		ldrb	r3, [r3]	@ tmp166, IRQn
 121 0014 7F2B     		cmp	r3, #127	@ tmp166,
 122 0016 36D9     		bls	.L5	@,
 895:./cmsis_core/core_cm0.h ****     SCB->SHP[_SHP_IDX(IRQn)] = (SCB->SHP[_SHP_IDX(IRQn)] & ~(0xFF << _BIT_SHIFT(IRQn))) |
 123              		.loc 1 895 0
 124 0018 324C     		ldr	r4, .L8	@ D.5226,
 125 001a 6B46     		mov	r3, sp	@ tmp201,
 126 001c 0733     		adds	r3, r3, #7	@ tmp167,
 127 001e 1B78     		ldrb	r3, [r3]	@ D.5227, IRQn
 128 0020 1A00     		movs	r2, r3	@ D.5228, D.5227
 129 0022 0F23     		movs	r3, #15	@ tmp168,
 130 0024 1340     		ands	r3, r2	@ D.5228, D.5228
 131 0026 083B     		subs	r3, r3, #8	@ D.5228,
ARM GAS  /tmp/ccD5vHri.s 			page 19


 132 0028 9908     		lsrs	r1, r3, #2	@ D.5228, D.5228,
 133 002a 2E4A     		ldr	r2, .L8	@ D.5226,
 134 002c 6B46     		mov	r3, sp	@ tmp202,
 135 002e 0733     		adds	r3, r3, #7	@ tmp169,
 136 0030 1B78     		ldrb	r3, [r3]	@ D.5227, IRQn
 137 0032 1800     		movs	r0, r3	@ D.5228, D.5227
 138 0034 0F23     		movs	r3, #15	@ tmp170,
 139 0036 0340     		ands	r3, r0	@ D.5228, D.5228
 140 0038 083B     		subs	r3, r3, #8	@ D.5228,
 141 003a 9B08     		lsrs	r3, r3, #2	@ D.5228, D.5228,
 142 003c 0633     		adds	r3, r3, #6	@ tmp171,
 143 003e 9B00     		lsls	r3, r3, #2	@ tmp172, tmp171,
 144 0040 D318     		adds	r3, r2, r3	@ tmp173, D.5226, tmp172
 145 0042 0433     		adds	r3, r3, #4	@ tmp174,
 146 0044 1B68     		ldr	r3, [r3]	@ D.5228, _9->SHP
 147 0046 6A46     		mov	r2, sp	@ tmp203,
 148 0048 0732     		adds	r2, r2, #7	@ tmp175,
 149 004a 1278     		ldrb	r2, [r2]	@ D.5227, IRQn
 150 004c 1000     		movs	r0, r2	@ D.5228, D.5227
 151 004e 0322     		movs	r2, #3	@ tmp176,
 152 0050 0240     		ands	r2, r0	@ D.5228, D.5228
 153 0052 D200     		lsls	r2, r2, #3	@ D.5228, D.5228,
 154 0054 FF20     		movs	r0, #255	@ tmp177,
 155 0056 9040     		lsls	r0, r0, r2	@ D.5229, D.5229, D.5228
 156 0058 0200     		movs	r2, r0	@ D.5229, D.5229
 157 005a D243     		mvns	r2, r2	@ D.5229, D.5229
 158 005c 1A40     		ands	r2, r3	@ D.5228, D.5228
 896:./cmsis_core/core_cm0.h ****         (((priority << (8 - __NVIC_PRIO_BITS)) & 0xFF) << _BIT_SHIFT(IRQn)); }
 159              		.loc 1 896 0
 160 005e 009B     		ldr	r3, [sp]	@ tmp178, priority
 161 0060 9B01     		lsls	r3, r3, #6	@ D.5228, tmp178,
 162 0062 FF20     		movs	r0, #255	@ tmp179,
 163 0064 1840     		ands	r0, r3	@ D.5228, D.5228
 164 0066 6B46     		mov	r3, sp	@ tmp205,
 165 0068 0733     		adds	r3, r3, #7	@ tmp180,
 166 006a 1B78     		ldrb	r3, [r3]	@ D.5227, IRQn
 167 006c 1D00     		movs	r5, r3	@ D.5228, D.5227
 168 006e 0323     		movs	r3, #3	@ tmp181,
 169 0070 2B40     		ands	r3, r5	@ D.5228, D.5228
 170 0072 DB00     		lsls	r3, r3, #3	@ D.5228, D.5228,
 171 0074 9840     		lsls	r0, r0, r3	@ D.5228, D.5228, D.5228
 172 0076 0300     		movs	r3, r0	@ D.5228, D.5228
 895:./cmsis_core/core_cm0.h ****     SCB->SHP[_SHP_IDX(IRQn)] = (SCB->SHP[_SHP_IDX(IRQn)] & ~(0xFF << _BIT_SHIFT(IRQn))) |
 173              		.loc 1 895 0
 174 0078 1A43     		orrs	r2, r3	@ D.5228, D.5228
 175 007a 8B1D     		adds	r3, r1, #6	@ tmp182, D.5228,
 176 007c 9B00     		lsls	r3, r3, #2	@ tmp183, tmp182,
 177 007e E318     		adds	r3, r4, r3	@ tmp184, D.5226, tmp183
 178 0080 0433     		adds	r3, r3, #4	@ tmp185,
 179 0082 1A60     		str	r2, [r3]	@ D.5228, _3->SHP
 897:./cmsis_core/core_cm0.h ****   else {
 898:./cmsis_core/core_cm0.h ****     NVIC->IP[_IP_IDX(IRQn)] = (NVIC->IP[_IP_IDX(IRQn)] & ~(0xFF << _BIT_SHIFT(IRQn))) |
 899:./cmsis_core/core_cm0.h ****         (((priority << (8 - __NVIC_PRIO_BITS)) & 0xFF) << _BIT_SHIFT(IRQn)); }
 900:./cmsis_core/core_cm0.h **** }
 180              		.loc 1 900 0
 181 0084 2BE0     		b	.L7	@
 182              	.L5:
ARM GAS  /tmp/ccD5vHri.s 			page 20


 898:./cmsis_core/core_cm0.h ****         (((priority << (8 - __NVIC_PRIO_BITS)) & 0xFF) << _BIT_SHIFT(IRQn)); }
 183              		.loc 1 898 0
 184 0086 184C     		ldr	r4, .L8+4	@ D.5230,
 185 0088 6B46     		mov	r3, sp	@ tmp207,
 186 008a 0733     		adds	r3, r3, #7	@ tmp186,
 187 008c 1B78     		ldrb	r3, [r3]	@ D.5228, IRQn
 188 008e 5BB2     		sxtb	r3, r3	@ D.5228, D.5228
 189 0090 9B08     		lsrs	r3, r3, #2	@ D.5228, D.5228,
 190 0092 1549     		ldr	r1, .L8+4	@ D.5230,
 191 0094 6A46     		mov	r2, sp	@ tmp208,
 192 0096 0732     		adds	r2, r2, #7	@ tmp187,
 193 0098 1278     		ldrb	r2, [r2]	@ D.5228, IRQn
 194 009a 52B2     		sxtb	r2, r2	@ D.5228, D.5228
 195 009c 9208     		lsrs	r2, r2, #2	@ D.5228, D.5228,
 196 009e C032     		adds	r2, r2, #192	@ tmp188,
 197 00a0 9200     		lsls	r2, r2, #2	@ tmp189, tmp188,
 198 00a2 5258     		ldr	r2, [r2, r1]	@ D.5228, _38->IP
 199 00a4 6946     		mov	r1, sp	@ tmp209,
 200 00a6 0731     		adds	r1, r1, #7	@ tmp190,
 201 00a8 0978     		ldrb	r1, [r1]	@ D.5227, IRQn
 202 00aa 0800     		movs	r0, r1	@ D.5228, D.5227
 203 00ac 0321     		movs	r1, #3	@ tmp191,
 204 00ae 0140     		ands	r1, r0	@ D.5228, D.5228
 205 00b0 C900     		lsls	r1, r1, #3	@ D.5228, D.5228,
 206 00b2 FF20     		movs	r0, #255	@ tmp192,
 207 00b4 8840     		lsls	r0, r0, r1	@ D.5229, D.5229, D.5228
 208 00b6 0100     		movs	r1, r0	@ D.5229, D.5229
 209 00b8 C943     		mvns	r1, r1	@ D.5229, D.5229
 210 00ba 1140     		ands	r1, r2	@ D.5228, D.5228
 899:./cmsis_core/core_cm0.h **** }
 211              		.loc 1 899 0
 212 00bc 009A     		ldr	r2, [sp]	@ tmp193, priority
 213 00be 9201     		lsls	r2, r2, #6	@ D.5228, tmp193,
 214 00c0 FF20     		movs	r0, #255	@ tmp194,
 215 00c2 1040     		ands	r0, r2	@ D.5228, D.5228
 216 00c4 6A46     		mov	r2, sp	@ tmp211,
 217 00c6 0732     		adds	r2, r2, #7	@ tmp195,
 218 00c8 1278     		ldrb	r2, [r2]	@ D.5227, IRQn
 219 00ca 1500     		movs	r5, r2	@ D.5228, D.5227
 220 00cc 0322     		movs	r2, #3	@ tmp196,
 221 00ce 2A40     		ands	r2, r5	@ D.5228, D.5228
 222 00d0 D200     		lsls	r2, r2, #3	@ D.5228, D.5228,
 223 00d2 9040     		lsls	r0, r0, r2	@ D.5228, D.5228, D.5228
 224 00d4 0200     		movs	r2, r0	@ D.5228, D.5228
 898:./cmsis_core/core_cm0.h ****         (((priority << (8 - __NVIC_PRIO_BITS)) & 0xFF) << _BIT_SHIFT(IRQn)); }
 225              		.loc 1 898 0
 226 00d6 0A43     		orrs	r2, r1	@ D.5228, D.5228
 227 00d8 C033     		adds	r3, r3, #192	@ tmp197,
 228 00da 9B00     		lsls	r3, r3, #2	@ tmp198, tmp197,
 229 00dc 1A51     		str	r2, [r3, r4]	@ D.5228, _35->IP
 230              	.L7:
 231              		.loc 1 900 0
 232 00de C046     		nop
 233 00e0 03B0     		add	sp, sp, #12	@,,
 234              		@ sp needed	@
 235 00e2 30BD     		pop	{r4, r5, pc}
 236              	.L9:
ARM GAS  /tmp/ccD5vHri.s 			page 21


 237              		.align	2
 238              	.L8:
 239 00e4 00ED00E0 		.word	-536810240
 240 00e8 00E100E0 		.word	-536813312
 241              		.cfi_endproc
 242              	.LFE16:
 243              		.size	NVIC_SetPriority, .-NVIC_SetPriority
 244              		.global	timer_1000
 245              		.section	.bss.timer_1000,"aw",%nobits
 246              		.align	1
 247              		.type	timer_1000, %object
 248              		.size	timer_1000, 2
 249              	timer_1000:
 250 0000 0000     		.space	2
 251              		.section	.text.Update_TIM1_CH3,"ax",%progbits
 252              		.align	2
 253              		.global	Update_TIM1_CH3
 254              		.code	16
 255              		.thumb_func
 256              		.type	Update_TIM1_CH3, %function
 257              	Update_TIM1_CH3:
 258              	.LFB20:
 259              		.file 2 "src/tim.c"
   1:src/tim.c     **** //---------------------------------------------
   2:src/tim.c     **** // ##
   3:src/tim.c     **** // ## @Author: Med
   4:src/tim.c     **** // ## @Editor: Emacs - ggtags
   5:src/tim.c     **** // ## @TAGS:   Global
   6:src/tim.c     **** // ## @CPU:    STM32F030
   7:src/tim.c     **** // ##
   8:src/tim.c     **** // #### TIM.C ################################
   9:src/tim.c     **** //---------------------------------------------
  10:src/tim.c     **** 
  11:src/tim.c     **** /* Includes ------------------------------------------------------------------*/
  12:src/tim.c     **** #include "tim.h"
  13:src/tim.c     **** #include "stm32f0xx.h"
  14:src/tim.c     **** #include "hard.h"
  15:src/tim.c     **** #include "sync.h"
  16:src/tim.c     **** 
  17:src/tim.c     **** //--- VARIABLES EXTERNAS ---//
  18:src/tim.c     **** extern volatile unsigned char timer_1seg;
  19:src/tim.c     **** extern volatile unsigned short timer_led_comm;
  20:src/tim.c     **** extern volatile unsigned short wait_ms_var;
  21:src/tim.c     **** extern volatile unsigned short delta_t2;
  22:src/tim.c     **** 
  23:src/tim.c     **** #ifdef INVERTER_MODE
  24:src/tim.c     **** extern volatile unsigned char ac_sync_int_flag;
  25:src/tim.c     **** #endif
  26:src/tim.c     **** 
  27:src/tim.c     **** //--- VARIABLES GLOBALES ---//
  28:src/tim.c     **** 
  29:src/tim.c     **** volatile unsigned short timer_1000 = 0;
  30:src/tim.c     **** 
  31:src/tim.c     **** 
  32:src/tim.c     **** 
  33:src/tim.c     **** //--- FUNCIONES DEL MODULO ---//
  34:src/tim.c     **** // inline void UpdateTIMSync (unsigned short a)
ARM GAS  /tmp/ccD5vHri.s 			page 22


  35:src/tim.c     **** // {
  36:src/tim.c     **** //     //primero cargo TIM1
  37:src/tim.c     **** //     TIM1->CCR1 = a;
  38:src/tim.c     **** //     TIM3->ARR = DUTY_50_PERCENT + a;    //TIM3->CCR1 es el delay entre timers
  39:src/tim.c     **** //                                         //lo cargo en el timer init
  40:src/tim.c     **** // }
  41:src/tim.c     **** 
  42:src/tim.c     **** // inline void UpdateTIM_MosfetA (unsigned short a)
  43:src/tim.c     **** // {
  44:src/tim.c     **** //     TIM3->ARR = DUTY_50_PERCENT + a;    
  45:src/tim.c     **** // }
  46:src/tim.c     **** 
  47:src/tim.c     **** // inline void UpdateTIM_MosfetB (unsigned short a)
  48:src/tim.c     **** // {
  49:src/tim.c     **** //     TIM1->CCR1 = a;
  50:src/tim.c     **** // }
  51:src/tim.c     **** 
  52:src/tim.c     **** // inline void EnablePreload_MosfetA (void)
  53:src/tim.c     **** // {
  54:src/tim.c     **** //     // TIM3->CCMR1 |= TIM_CCMR1_OC1PE;
  55:src/tim.c     **** //     TIM3->CR1 |= TIM_CR1_ARPE;
  56:src/tim.c     **** // }
  57:src/tim.c     **** 
  58:src/tim.c     **** // inline void DisablePreload_MosfetA (void)
  59:src/tim.c     **** // {
  60:src/tim.c     **** //     // TIM3->CCMR1 &= ~TIM_CCMR1_OC1PE;
  61:src/tim.c     **** //     TIM3->CR1 &= ~TIM_CR1_ARPE;    
  62:src/tim.c     **** // }
  63:src/tim.c     **** 
  64:src/tim.c     **** // inline void EnablePreload_MosfetB (void)
  65:src/tim.c     **** // {
  66:src/tim.c     **** //     TIM1->CCMR1 |= TIM_CCMR1_OC1PE;
  67:src/tim.c     **** // }
  68:src/tim.c     **** 
  69:src/tim.c     **** // inline void DisablePreload_MosfetB (void)
  70:src/tim.c     **** // {
  71:src/tim.c     **** //     TIM1->CCMR1 &= ~TIM_CCMR1_OC1PE;
  72:src/tim.c     **** // }
  73:src/tim.c     **** 
  74:src/tim.c     **** void Update_TIM1_CH3 (unsigned short a)
  75:src/tim.c     **** {
 260              		.loc 2 75 0
 261              		.cfi_startproc
 262 0000 82B0     		sub	sp, sp, #8	@,,
 263              	.LCFI3:
 264              		.cfi_def_cfa_offset 8
 265 0002 0200     		movs	r2, r0	@ tmp112, a
 266 0004 6B46     		mov	r3, sp	@ tmp116,
 267 0006 0633     		adds	r3, r3, #6	@ tmp113,
 268 0008 1A80     		strh	r2, [r3]	@ tmp114, a
  76:src/tim.c     ****     TIM1->CCR3 = a;
 269              		.loc 2 76 0
 270 000a 044B     		ldr	r3, .L11	@ D.5231,
 271 000c 6A46     		mov	r2, sp	@ tmp117,
 272 000e 0632     		adds	r2, r2, #6	@ tmp115,
 273 0010 1288     		ldrh	r2, [r2]	@ D.5232, a
 274 0012 DA63     		str	r2, [r3, #60]	@ D.5232, _1->CCR3
ARM GAS  /tmp/ccD5vHri.s 			page 23


  77:src/tim.c     **** }
 275              		.loc 2 77 0
 276 0014 C046     		nop
 277 0016 02B0     		add	sp, sp, #8	@,,
 278              		@ sp needed	@
 279 0018 7047     		bx	lr
 280              	.L12:
 281 001a C046     		.align	2
 282              	.L11:
 283 001c 002C0140 		.word	1073818624
 284              		.cfi_endproc
 285              	.LFE20:
 286              		.size	Update_TIM1_CH3, .-Update_TIM1_CH3
 287              		.section	.text.Update_TIM3_CH1,"ax",%progbits
 288              		.align	2
 289              		.global	Update_TIM3_CH1
 290              		.code	16
 291              		.thumb_func
 292              		.type	Update_TIM3_CH1, %function
 293              	Update_TIM3_CH1:
 294              	.LFB21:
  78:src/tim.c     **** 
  79:src/tim.c     **** void Update_TIM3_CH1 (unsigned short a)
  80:src/tim.c     **** {
 295              		.loc 2 80 0
 296              		.cfi_startproc
 297 0000 82B0     		sub	sp, sp, #8	@,,
 298              	.LCFI4:
 299              		.cfi_def_cfa_offset 8
 300 0002 0200     		movs	r2, r0	@ tmp112, a
 301 0004 6B46     		mov	r3, sp	@ tmp116,
 302 0006 0633     		adds	r3, r3, #6	@ tmp113,
 303 0008 1A80     		strh	r2, [r3]	@ tmp114, a
  81:src/tim.c     ****     TIM3->CCR1 = a;
 304              		.loc 2 81 0
 305 000a 044B     		ldr	r3, .L14	@ D.5233,
 306 000c 6A46     		mov	r2, sp	@ tmp117,
 307 000e 0632     		adds	r2, r2, #6	@ tmp115,
 308 0010 1288     		ldrh	r2, [r2]	@ D.5234, a
 309 0012 5A63     		str	r2, [r3, #52]	@ D.5234, _1->CCR1
  82:src/tim.c     **** }
 310              		.loc 2 82 0
 311 0014 C046     		nop
 312 0016 02B0     		add	sp, sp, #8	@,,
 313              		@ sp needed	@
 314 0018 7047     		bx	lr
 315              	.L15:
 316 001a C046     		.align	2
 317              	.L14:
 318 001c 00040040 		.word	1073742848
 319              		.cfi_endproc
 320              	.LFE21:
 321              		.size	Update_TIM3_CH1, .-Update_TIM3_CH1
 322              		.section	.text.Update_TIM3_CH2,"ax",%progbits
 323              		.align	2
 324              		.global	Update_TIM3_CH2
 325              		.code	16
ARM GAS  /tmp/ccD5vHri.s 			page 24


 326              		.thumb_func
 327              		.type	Update_TIM3_CH2, %function
 328              	Update_TIM3_CH2:
 329              	.LFB22:
  83:src/tim.c     **** 
  84:src/tim.c     **** void Update_TIM3_CH2 (unsigned short a)
  85:src/tim.c     **** {
 330              		.loc 2 85 0
 331              		.cfi_startproc
 332 0000 82B0     		sub	sp, sp, #8	@,,
 333              	.LCFI5:
 334              		.cfi_def_cfa_offset 8
 335 0002 0200     		movs	r2, r0	@ tmp112, a
 336 0004 6B46     		mov	r3, sp	@ tmp116,
 337 0006 0633     		adds	r3, r3, #6	@ tmp113,
 338 0008 1A80     		strh	r2, [r3]	@ tmp114, a
  86:src/tim.c     ****     TIM3->CCR2 = a;
 339              		.loc 2 86 0
 340 000a 044B     		ldr	r3, .L17	@ D.5235,
 341 000c 6A46     		mov	r2, sp	@ tmp117,
 342 000e 0632     		adds	r2, r2, #6	@ tmp115,
 343 0010 1288     		ldrh	r2, [r2]	@ D.5236, a
 344 0012 9A63     		str	r2, [r3, #56]	@ D.5236, _1->CCR2
  87:src/tim.c     **** }
 345              		.loc 2 87 0
 346 0014 C046     		nop
 347 0016 02B0     		add	sp, sp, #8	@,,
 348              		@ sp needed	@
 349 0018 7047     		bx	lr
 350              	.L18:
 351 001a C046     		.align	2
 352              	.L17:
 353 001c 00040040 		.word	1073742848
 354              		.cfi_endproc
 355              	.LFE22:
 356              		.size	Update_TIM3_CH2, .-Update_TIM3_CH2
 357              		.section	.text.Update_TIM3_CH3,"ax",%progbits
 358              		.align	2
 359              		.global	Update_TIM3_CH3
 360              		.code	16
 361              		.thumb_func
 362              		.type	Update_TIM3_CH3, %function
 363              	Update_TIM3_CH3:
 364              	.LFB23:
  88:src/tim.c     **** 
  89:src/tim.c     **** void Update_TIM3_CH3 (unsigned short a)
  90:src/tim.c     **** {
 365              		.loc 2 90 0
 366              		.cfi_startproc
 367 0000 82B0     		sub	sp, sp, #8	@,,
 368              	.LCFI6:
 369              		.cfi_def_cfa_offset 8
 370 0002 0200     		movs	r2, r0	@ tmp112, a
 371 0004 6B46     		mov	r3, sp	@ tmp116,
 372 0006 0633     		adds	r3, r3, #6	@ tmp113,
 373 0008 1A80     		strh	r2, [r3]	@ tmp114, a
  91:src/tim.c     ****     TIM3->CCR3 = a;
ARM GAS  /tmp/ccD5vHri.s 			page 25


 374              		.loc 2 91 0
 375 000a 044B     		ldr	r3, .L20	@ D.5237,
 376 000c 6A46     		mov	r2, sp	@ tmp117,
 377 000e 0632     		adds	r2, r2, #6	@ tmp115,
 378 0010 1288     		ldrh	r2, [r2]	@ D.5238, a
 379 0012 DA63     		str	r2, [r3, #60]	@ D.5238, _1->CCR3
  92:src/tim.c     **** }
 380              		.loc 2 92 0
 381 0014 C046     		nop
 382 0016 02B0     		add	sp, sp, #8	@,,
 383              		@ sp needed	@
 384 0018 7047     		bx	lr
 385              	.L21:
 386 001a C046     		.align	2
 387              	.L20:
 388 001c 00040040 		.word	1073742848
 389              		.cfi_endproc
 390              	.LFE23:
 391              		.size	Update_TIM3_CH3, .-Update_TIM3_CH3
 392              		.section	.text.Update_TIM3_CH4,"ax",%progbits
 393              		.align	2
 394              		.global	Update_TIM3_CH4
 395              		.code	16
 396              		.thumb_func
 397              		.type	Update_TIM3_CH4, %function
 398              	Update_TIM3_CH4:
 399              	.LFB24:
  93:src/tim.c     **** 
  94:src/tim.c     **** void Update_TIM3_CH4 (unsigned short a)
  95:src/tim.c     **** {
 400              		.loc 2 95 0
 401              		.cfi_startproc
 402 0000 82B0     		sub	sp, sp, #8	@,,
 403              	.LCFI7:
 404              		.cfi_def_cfa_offset 8
 405 0002 0200     		movs	r2, r0	@ tmp112, a
 406 0004 6B46     		mov	r3, sp	@ tmp116,
 407 0006 0633     		adds	r3, r3, #6	@ tmp113,
 408 0008 1A80     		strh	r2, [r3]	@ tmp114, a
  96:src/tim.c     ****     TIM3->CCR4 = a;
 409              		.loc 2 96 0
 410 000a 044B     		ldr	r3, .L23	@ D.5239,
 411 000c 6A46     		mov	r2, sp	@ tmp117,
 412 000e 0632     		adds	r2, r2, #6	@ tmp115,
 413 0010 1288     		ldrh	r2, [r2]	@ D.5240, a
 414 0012 1A64     		str	r2, [r3, #64]	@ D.5240, _1->CCR4
  97:src/tim.c     **** }
 415              		.loc 2 97 0
 416 0014 C046     		nop
 417 0016 02B0     		add	sp, sp, #8	@,,
 418              		@ sp needed	@
 419 0018 7047     		bx	lr
 420              	.L24:
 421 001a C046     		.align	2
 422              	.L23:
 423 001c 00040040 		.word	1073742848
 424              		.cfi_endproc
ARM GAS  /tmp/ccD5vHri.s 			page 26


 425              	.LFE24:
 426              		.size	Update_TIM3_CH4, .-Update_TIM3_CH4
 427              		.section	.text.Update_TIM14_CH1,"ax",%progbits
 428              		.align	2
 429              		.global	Update_TIM14_CH1
 430              		.code	16
 431              		.thumb_func
 432              		.type	Update_TIM14_CH1, %function
 433              	Update_TIM14_CH1:
 434              	.LFB25:
  98:src/tim.c     **** 
  99:src/tim.c     **** void Update_TIM14_CH1 (unsigned short a)
 100:src/tim.c     **** {
 435              		.loc 2 100 0
 436              		.cfi_startproc
 437 0000 82B0     		sub	sp, sp, #8	@,,
 438              	.LCFI8:
 439              		.cfi_def_cfa_offset 8
 440 0002 0200     		movs	r2, r0	@ tmp112, a
 441 0004 6B46     		mov	r3, sp	@ tmp116,
 442 0006 0633     		adds	r3, r3, #6	@ tmp113,
 443 0008 1A80     		strh	r2, [r3]	@ tmp114, a
 101:src/tim.c     ****     TIM14->CCR1 = a;
 444              		.loc 2 101 0
 445 000a 044B     		ldr	r3, .L26	@ D.5241,
 446 000c 6A46     		mov	r2, sp	@ tmp117,
 447 000e 0632     		adds	r2, r2, #6	@ tmp115,
 448 0010 1288     		ldrh	r2, [r2]	@ D.5242, a
 449 0012 5A63     		str	r2, [r3, #52]	@ D.5242, _1->CCR1
 102:src/tim.c     **** }
 450              		.loc 2 102 0
 451 0014 C046     		nop
 452 0016 02B0     		add	sp, sp, #8	@,,
 453              		@ sp needed	@
 454 0018 7047     		bx	lr
 455              	.L27:
 456 001a C046     		.align	2
 457              	.L26:
 458 001c 00200040 		.word	1073750016
 459              		.cfi_endproc
 460              	.LFE25:
 461              		.size	Update_TIM14_CH1, .-Update_TIM14_CH1
 462              		.section	.text.Wait_ms,"ax",%progbits
 463              		.align	2
 464              		.global	Wait_ms
 465              		.code	16
 466              		.thumb_func
 467              		.type	Wait_ms, %function
 468              	Wait_ms:
 469              	.LFB26:
 103:src/tim.c     **** 
 104:src/tim.c     **** void Wait_ms (unsigned short wait)
 105:src/tim.c     **** {
 470              		.loc 2 105 0
 471              		.cfi_startproc
 472 0000 82B0     		sub	sp, sp, #8	@,,
 473              	.LCFI9:
ARM GAS  /tmp/ccD5vHri.s 			page 27


 474              		.cfi_def_cfa_offset 8
 475 0002 0200     		movs	r2, r0	@ tmp111, wait
 476 0004 6B46     		mov	r3, sp	@ tmp119,
 477 0006 0633     		adds	r3, r3, #6	@ tmp112,
 478 0008 1A80     		strh	r2, [r3]	@ tmp113, wait
 106:src/tim.c     ****     wait_ms_var = wait;
 479              		.loc 2 106 0
 480 000a 074B     		ldr	r3, .L30	@ tmp114,
 481 000c 6A46     		mov	r2, sp	@ tmp120,
 482 000e 0632     		adds	r2, r2, #6	@ tmp115,
 483 0010 1288     		ldrh	r2, [r2]	@ tmp116, wait
 484 0012 1A80     		strh	r2, [r3]	@ tmp116, wait_ms_var
 107:src/tim.c     **** 
 108:src/tim.c     ****     while (wait_ms_var);
 485              		.loc 2 108 0
 486 0014 C046     		nop
 487              	.L29:
 488              		.loc 2 108 0 is_stmt 0 discriminator 1
 489 0016 044B     		ldr	r3, .L30	@ tmp117,
 490 0018 1B88     		ldrh	r3, [r3]	@ tmp118, wait_ms_var
 491 001a 9BB2     		uxth	r3, r3	@ D.5243, tmp118
 492 001c 002B     		cmp	r3, #0	@ D.5243,
 493 001e FAD1     		bne	.L29	@,
 109:src/tim.c     **** }
 494              		.loc 2 109 0 is_stmt 1
 495 0020 C046     		nop
 496 0022 02B0     		add	sp, sp, #8	@,,
 497              		@ sp needed	@
 498 0024 7047     		bx	lr
 499              	.L31:
 500 0026 C046     		.align	2
 501              	.L30:
 502 0028 00000000 		.word	wait_ms_var
 503              		.cfi_endproc
 504              	.LFE26:
 505              		.size	Wait_ms, .-Wait_ms
 506              		.section	.text.TIM_1_Init,"ax",%progbits
 507              		.align	2
 508              		.global	TIM_1_Init
 509              		.code	16
 510              		.thumb_func
 511              		.type	TIM_1_Init, %function
 512              	TIM_1_Init:
 513              	.LFB27:
 110:src/tim.c     **** 
 111:src/tim.c     **** //-------------------------------------------//
 112:src/tim.c     **** // @brief  TIM configure.
 113:src/tim.c     **** // @param  None
 114:src/tim.c     **** // @retval None
 115:src/tim.c     **** //------------------------------------------//
 116:src/tim.c     **** void TIM_1_Init (void)
 117:src/tim.c     **** {
 514              		.loc 2 117 0
 515              		.cfi_startproc
 516 0000 82B0     		sub	sp, sp, #8	@,,
 517              	.LCFI10:
 518              		.cfi_def_cfa_offset 8
ARM GAS  /tmp/ccD5vHri.s 			page 28


 118:src/tim.c     ****     unsigned int temp = 0;
 519              		.loc 2 118 0
 520 0002 0023     		movs	r3, #0	@ tmp142,
 521 0004 0193     		str	r3, [sp, #4]	@ tmp142, temp
 119:src/tim.c     **** 
 120:src/tim.c     ****     if (!RCC_TIM1_CLK)
 522              		.loc 2 120 0
 523 0006 2D4B     		ldr	r3, .L34	@ D.5244,
 524 0008 9A69     		ldr	r2, [r3, #24]	@ D.5245, _3->APB2ENR
 525 000a 8023     		movs	r3, #128	@ tmp192,
 526 000c 1B01     		lsls	r3, r3, #4	@ tmp143, tmp192,
 527 000e 1340     		ands	r3, r2	@ D.5245, D.5245
 528 0010 06D1     		bne	.L33	@,
 121:src/tim.c     ****         RCC_TIM1_CLK_ON;
 529              		.loc 2 121 0
 530 0012 2A4B     		ldr	r3, .L34	@ D.5244,
 531 0014 294A     		ldr	r2, .L34	@ D.5244,
 532 0016 9269     		ldr	r2, [r2, #24]	@ D.5245, _8->APB2ENR
 533 0018 8021     		movs	r1, #128	@ tmp191,
 534 001a 0901     		lsls	r1, r1, #4	@ tmp144, tmp191,
 535 001c 0A43     		orrs	r2, r1	@ D.5245, tmp144
 536 001e 9A61     		str	r2, [r3, #24]	@ D.5245, _7->APB2ENR
 537              	.L33:
 122:src/tim.c     **** 
 123:src/tim.c     ****     //Configuracion del timer.
 124:src/tim.c     ****     //TIM1->CR1 |= TIM_CR1_OPM;        //clk int / 1; upcounting; one pulse
 125:src/tim.c     ****     TIM1->CR1 = 0x00;        //clk int / 1;
 538              		.loc 2 125 0
 539 0020 274B     		ldr	r3, .L34+4	@ D.5246,
 540 0022 0022     		movs	r2, #0	@ tmp145,
 541 0024 1A80     		strh	r2, [r3]	@ tmp146, _12->CR1
 126:src/tim.c     ****     // TIM1->CR2 |= TIM_CR2_MMS_1;        //UEV -> TRG0
 127:src/tim.c     ****     TIM1->CR2 = 0x00;
 542              		.loc 2 127 0
 543 0026 264B     		ldr	r3, .L34+4	@ D.5246,
 544 0028 0022     		movs	r2, #0	@ tmp147,
 545 002a 9A80     		strh	r2, [r3, #4]	@ tmp148, _14->CR2
 128:src/tim.c     ****     // TIM1->SMCR |= TIM_SMCR_MSM | TIM_SMCR_SMS_2 |
 129:src/tim.c     ****     //     TIM_SMCR_SMS_1 | TIM_SMCR_TS_1;    //link timer3; resync <- TRG2
 130:src/tim.c     ****     // TIM1->SMCR |= TIM_SMCR_MSM | TIM_SMCR_SMS_2 | TIM_SMCR_SMS_1;    //link timer3; resync <- TR
 131:src/tim.c     ****     TIM1->SMCR |= TIM_SMCR_SMS_2 | TIM_SMCR_SMS_1;    //link timer3 <- TRG0    
 546              		.loc 2 131 0
 547 002c 244A     		ldr	r2, .L34+4	@ D.5246,
 548 002e 244B     		ldr	r3, .L34+4	@ D.5246,
 549 0030 1B89     		ldrh	r3, [r3, #8]	@ tmp150,
 550 0032 9BB2     		uxth	r3, r3	@ D.5247, tmp150
 551 0034 0621     		movs	r1, #6	@ tmp152,
 552 0036 0B43     		orrs	r3, r1	@ tmp151, tmp152
 553 0038 9BB2     		uxth	r3, r3	@ D.5247, tmp151
 554 003a 1381     		strh	r3, [r2, #8]	@ tmp153, _16->SMCR
 132:src/tim.c     ****     // TIM1->SMCR = 0x0000;
 133:src/tim.c     **** 
 134:src/tim.c     ****     TIM1->CCMR1 = 0x0000;            
 555              		.loc 2 134 0
 556 003c 204B     		ldr	r3, .L34+4	@ D.5246,
 557 003e 0022     		movs	r2, #0	@ tmp154,
 558 0040 1A83     		strh	r2, [r3, #24]	@ tmp155, _21->CCMR1
ARM GAS  /tmp/ccD5vHri.s 			page 29


 135:src/tim.c     ****     TIM1->CCMR2 = 0x0060;            //CH3 output PWM mode 1 (channel active TIM1->CNT < TIM1->CCR1
 559              		.loc 2 135 0
 560 0042 1F4B     		ldr	r3, .L34+4	@ D.5246,
 561 0044 6022     		movs	r2, #96	@ tmp156,
 562 0046 9A83     		strh	r2, [r3, #28]	@ tmp157, _23->CCMR2
 136:src/tim.c     ****     TIM1->CCER |= TIM_CCER_CC3E;
 563              		.loc 2 136 0
 564 0048 1D49     		ldr	r1, .L34+4	@ D.5246,
 565 004a 1D4B     		ldr	r3, .L34+4	@ D.5246,
 566 004c 1B8C     		ldrh	r3, [r3, #32]	@ tmp159,
 567 004e 9BB2     		uxth	r3, r3	@ D.5247, tmp159
 568 0050 8022     		movs	r2, #128	@ tmp186,
 569 0052 5200     		lsls	r2, r2, #1	@ tmp161, tmp186,
 570 0054 1343     		orrs	r3, r2	@ tmp160, tmp161
 571 0056 9BB2     		uxth	r3, r3	@ D.5247, tmp160
 572 0058 0B84     		strh	r3, [r1, #32]	@ tmp162, _25->CCER
 137:src/tim.c     ****     // TIM1->CCER |= TIM_CCER_CC1E | TIM_CCER_CC3NE | TIM_CCER_CC3NP;    //el pin es TIM1_CH3N    
 138:src/tim.c     ****     
 139:src/tim.c     ****     TIM1->BDTR |= TIM_BDTR_MOE;
 573              		.loc 2 139 0
 574 005a 194A     		ldr	r2, .L34+4	@ D.5246,
 575 005c 1849     		ldr	r1, .L34+4	@ D.5246,
 576 005e 4423     		movs	r3, #68	@ tmp163,
 577 0060 CB5A     		ldrh	r3, [r1, r3]	@ tmp165,
 578 0062 9BB2     		uxth	r3, r3	@ D.5247, tmp165
 579 0064 1749     		ldr	r1, .L34+8	@ tmp167,
 580 0066 0B43     		orrs	r3, r1	@ tmp166, tmp167
 581 0068 99B2     		uxth	r1, r3	@ D.5247, tmp166
 582 006a 4423     		movs	r3, #68	@ tmp168,
 583 006c D152     		strh	r1, [r2, r3]	@ tmp169, _30->BDTR
 140:src/tim.c     ****     // TIM1->ARR = 1023;                //cada tick 20.83ns
 141:src/tim.c     ****     TIM1->ARR = DUTY_100_PERCENT;   
 584              		.loc 2 141 0
 585 006e 144B     		ldr	r3, .L34+4	@ D.5246,
 586 0070 FA22     		movs	r2, #250	@ tmp187,
 587 0072 9200     		lsls	r2, r2, #2	@ tmp170, tmp187,
 588 0074 DA62     		str	r2, [r3, #44]	@ tmp170, _35->ARR
 142:src/tim.c     **** 
 143:src/tim.c     ****     TIM1->CNT = 0;
 589              		.loc 2 143 0
 590 0076 124B     		ldr	r3, .L34+4	@ D.5246,
 591 0078 0022     		movs	r2, #0	@ tmp171,
 592 007a 5A62     		str	r2, [r3, #36]	@ tmp171, _37->CNT
 144:src/tim.c     ****     TIM1->PSC = 0;
 593              		.loc 2 144 0
 594 007c 104B     		ldr	r3, .L34+4	@ D.5246,
 595 007e 0022     		movs	r2, #0	@ tmp172,
 596 0080 1A85     		strh	r2, [r3, #40]	@ tmp173, _39->PSC
 145:src/tim.c     **** 
 146:src/tim.c     ****     temp = GPIOA->AFR[1];
 597              		.loc 2 146 0
 598 0082 9023     		movs	r3, #144	@ tmp188,
 599 0084 DB05     		lsls	r3, r3, #23	@ D.5248, tmp188,
 600 0086 5B6A     		ldr	r3, [r3, #36]	@ tmp174, _41->AFR
 601 0088 0193     		str	r3, [sp, #4]	@ tmp174, temp
 147:src/tim.c     ****     temp &= 0xFFFFF0FF;
 602              		.loc 2 147 0
ARM GAS  /tmp/ccD5vHri.s 			page 30


 603 008a 019B     		ldr	r3, [sp, #4]	@ tmp176, temp
 604 008c 0E4A     		ldr	r2, .L34+12	@ tmp177,
 605 008e 1340     		ands	r3, r2	@ tmp175, tmp177
 606 0090 0193     		str	r3, [sp, #4]	@ tmp175, temp
 148:src/tim.c     ****     temp |= 0x00000200;    //PA10 -> AF2
 607              		.loc 2 148 0
 608 0092 019B     		ldr	r3, [sp, #4]	@ tmp179, temp
 609 0094 8022     		movs	r2, #128	@ tmp189,
 610 0096 9200     		lsls	r2, r2, #2	@ tmp180, tmp189,
 611 0098 1343     		orrs	r3, r2	@ tmp178, tmp180
 612 009a 0193     		str	r3, [sp, #4]	@ tmp178, temp
 149:src/tim.c     ****     GPIOA->AFR[1] = temp;
 613              		.loc 2 149 0
 614 009c 9023     		movs	r3, #144	@ tmp190,
 615 009e DB05     		lsls	r3, r3, #23	@ D.5248, tmp190,
 616 00a0 019A     		ldr	r2, [sp, #4]	@ tmp181, temp
 617 00a2 5A62     		str	r2, [r3, #36]	@ tmp181, _45->AFR
 150:src/tim.c     ****     
 151:src/tim.c     ****     // Enable timer ver UDIS
 152:src/tim.c     ****     //TIM1->DIER |= TIM_DIER_UIE;
 153:src/tim.c     ****     TIM1->CR1 |= TIM_CR1_CEN;
 618              		.loc 2 153 0
 619 00a4 064A     		ldr	r2, .L34+4	@ D.5246,
 620 00a6 064B     		ldr	r3, .L34+4	@ D.5246,
 621 00a8 1B88     		ldrh	r3, [r3]	@ tmp182, *_48
 622 00aa 9BB2     		uxth	r3, r3	@ D.5247, tmp182
 623 00ac 0121     		movs	r1, #1	@ tmp184,
 624 00ae 0B43     		orrs	r3, r1	@ tmp183, tmp184
 625 00b0 9BB2     		uxth	r3, r3	@ D.5247, tmp183
 626 00b2 1380     		strh	r3, [r2]	@ tmp185, _47->CR1
 154:src/tim.c     **** }
 627              		.loc 2 154 0
 628 00b4 C046     		nop
 629 00b6 02B0     		add	sp, sp, #8	@,,
 630              		@ sp needed	@
 631 00b8 7047     		bx	lr
 632              	.L35:
 633 00ba C046     		.align	2
 634              	.L34:
 635 00bc 00100240 		.word	1073876992
 636 00c0 002C0140 		.word	1073818624
 637 00c4 0080FFFF 		.word	-32768
 638 00c8 FFF0FFFF 		.word	-3841
 639              		.cfi_endproc
 640              	.LFE27:
 641              		.size	TIM_1_Init, .-TIM_1_Init
 642              		.section	.text.TIM_3_Init,"ax",%progbits
 643              		.align	2
 644              		.global	TIM_3_Init
 645              		.code	16
 646              		.thumb_func
 647              		.type	TIM_3_Init, %function
 648              	TIM_3_Init:
 649              	.LFB28:
 155:src/tim.c     **** 
 156:src/tim.c     **** 
 157:src/tim.c     **** void TIM_3_Init (void)
ARM GAS  /tmp/ccD5vHri.s 			page 31


 158:src/tim.c     **** {
 650              		.loc 2 158 0
 651              		.cfi_startproc
 652 0000 82B0     		sub	sp, sp, #8	@,,
 653              	.LCFI11:
 654              		.cfi_def_cfa_offset 8
 159:src/tim.c     ****     unsigned int temp = 0;
 655              		.loc 2 159 0
 656 0002 0023     		movs	r3, #0	@ tmp138,
 657 0004 0193     		str	r3, [sp, #4]	@ tmp138, temp
 160:src/tim.c     **** 
 161:src/tim.c     ****     if (!RCC_TIM3_CLK)
 658              		.loc 2 161 0
 659 0006 264B     		ldr	r3, .L38	@ D.5249,
 660 0008 DB69     		ldr	r3, [r3, #28]	@ D.5250, _3->APB1ENR
 661 000a 0222     		movs	r2, #2	@ tmp139,
 662 000c 1340     		ands	r3, r2	@ D.5250, tmp139
 663 000e 05D1     		bne	.L37	@,
 162:src/tim.c     ****         RCC_TIM3_CLK_ON;
 664              		.loc 2 162 0
 665 0010 234B     		ldr	r3, .L38	@ D.5249,
 666 0012 234A     		ldr	r2, .L38	@ D.5249,
 667 0014 D269     		ldr	r2, [r2, #28]	@ D.5250, _8->APB1ENR
 668 0016 0221     		movs	r1, #2	@ tmp140,
 669 0018 0A43     		orrs	r2, r1	@ D.5250, tmp140
 670 001a DA61     		str	r2, [r3, #28]	@ D.5250, _7->APB1ENR
 671              	.L37:
 163:src/tim.c     **** 
 164:src/tim.c     ****     //Configuracion del timer.
 165:src/tim.c     ****     //TIM3->CR1 = 0x0000;        //clk int / 1; upcounting;
 166:src/tim.c     ****     TIM3->CR2 |= TIM_CR2_MMS_1;        //UEV -> TRG0 (for the ADC sync)
 672              		.loc 2 166 0
 673 001c 214A     		ldr	r2, .L38+4	@ D.5251,
 674 001e 214B     		ldr	r3, .L38+4	@ D.5251,
 675 0020 9B88     		ldrh	r3, [r3, #4]	@ tmp142,
 676 0022 9BB2     		uxth	r3, r3	@ D.5252, tmp142
 677 0024 2021     		movs	r1, #32	@ tmp144,
 678 0026 0B43     		orrs	r3, r1	@ tmp143, tmp144
 679 0028 9BB2     		uxth	r3, r3	@ D.5252, tmp143
 680 002a 9380     		strh	r3, [r2, #4]	@ tmp145, _12->CR2
 167:src/tim.c     ****     // TIM3->CR2 = 0x0000;
 168:src/tim.c     ****     //TIM3->SMCR |= TIM_SMCR_SMS_2 |TIM_SMCR_SMS_1 | TIM_SMCR_TS_1 | TIM_SMCR_TS_0;    //reset mode
 169:src/tim.c     ****     //TIM3->SMCR |= TIM_SMCR_SMS_2;    //reset mode link timer1    OJO no anda
 170:src/tim.c     ****     // TIM3->SMCR |= TIM_SMCR_SMS_2 | TIM_SMCR_SMS_1;    //trigger mode link timer1
 171:src/tim.c     ****     TIM3->SMCR = 0x0000;    //
 681              		.loc 2 171 0
 682 002c 1D4B     		ldr	r3, .L38+4	@ D.5251,
 683 002e 0022     		movs	r2, #0	@ tmp146,
 684 0030 1A81     		strh	r2, [r3, #8]	@ tmp147, _17->SMCR
 172:src/tim.c     ****     TIM3->CCMR1 = 0x0060;            //CH1 output PWM mode 1 (channel active TIM3->CNT < TIM3->CCR1
 685              		.loc 2 172 0
 686 0032 1C4B     		ldr	r3, .L38+4	@ D.5251,
 687 0034 6022     		movs	r2, #96	@ tmp148,
 688 0036 1A83     		strh	r2, [r3, #24]	@ tmp149, _19->CCMR1
 173:src/tim.c     ****     TIM3->CCMR2 = 0x0000;
 689              		.loc 2 173 0
 690 0038 1A4B     		ldr	r3, .L38+4	@ D.5251,
ARM GAS  /tmp/ccD5vHri.s 			page 32


 691 003a 0022     		movs	r2, #0	@ tmp150,
 692 003c 9A83     		strh	r2, [r3, #28]	@ tmp151, _21->CCMR2
 174:src/tim.c     ****     TIM3->CCER |= TIM_CCER_CC1E;    //CH1 enable on pin active high
 693              		.loc 2 174 0
 694 003e 194A     		ldr	r2, .L38+4	@ D.5251,
 695 0040 184B     		ldr	r3, .L38+4	@ D.5251,
 696 0042 1B8C     		ldrh	r3, [r3, #32]	@ tmp153,
 697 0044 9BB2     		uxth	r3, r3	@ D.5252, tmp153
 698 0046 0121     		movs	r1, #1	@ tmp155,
 699 0048 0B43     		orrs	r3, r1	@ tmp154, tmp155
 700 004a 9BB2     		uxth	r3, r3	@ D.5252, tmp154
 701 004c 1384     		strh	r3, [r2, #32]	@ tmp156, _23->CCER
 175:src/tim.c     **** 
 176:src/tim.c     ****     TIM3->ARR = DUTY_100_PERCENT;
 702              		.loc 2 176 0
 703 004e 154B     		ldr	r3, .L38+4	@ D.5251,
 704 0050 FA22     		movs	r2, #250	@ tmp174,
 705 0052 9200     		lsls	r2, r2, #2	@ tmp157, tmp174,
 706 0054 DA62     		str	r2, [r3, #44]	@ tmp157, _28->ARR
 177:src/tim.c     ****     TIM3->CNT = 0;
 707              		.loc 2 177 0
 708 0056 134B     		ldr	r3, .L38+4	@ D.5251,
 709 0058 0022     		movs	r2, #0	@ tmp158,
 710 005a 5A62     		str	r2, [r3, #36]	@ tmp158, _30->CNT
 178:src/tim.c     ****     TIM3->PSC = 0;
 711              		.loc 2 178 0
 712 005c 114B     		ldr	r3, .L38+4	@ D.5251,
 713 005e 0022     		movs	r2, #0	@ tmp159,
 714 0060 1A85     		strh	r2, [r3, #40]	@ tmp160, _32->PSC
 179:src/tim.c     ****     
 180:src/tim.c     ****     //Alternative Function Pins
 181:src/tim.c     ****     temp = GPIOA->AFR[0];
 715              		.loc 2 181 0
 716 0062 9023     		movs	r3, #144	@ tmp175,
 717 0064 DB05     		lsls	r3, r3, #23	@ D.5253, tmp175,
 718 0066 1B6A     		ldr	r3, [r3, #32]	@ tmp161, _34->AFR
 719 0068 0193     		str	r3, [sp, #4]	@ tmp161, temp
 182:src/tim.c     ****     temp &= 0xF0FFFFFF;
 720              		.loc 2 182 0
 721 006a 019B     		ldr	r3, [sp, #4]	@ tmp163, temp
 722 006c 0E4A     		ldr	r2, .L38+8	@ tmp164,
 723 006e 1340     		ands	r3, r2	@ tmp162, tmp164
 724 0070 0193     		str	r3, [sp, #4]	@ tmp162, temp
 183:src/tim.c     ****     temp |= 0x01000000;    //PA6 -> AF1;
 725              		.loc 2 183 0
 726 0072 019B     		ldr	r3, [sp, #4]	@ tmp166, temp
 727 0074 8022     		movs	r2, #128	@ tmp176,
 728 0076 5204     		lsls	r2, r2, #17	@ tmp167, tmp176,
 729 0078 1343     		orrs	r3, r2	@ tmp165, tmp167
 730 007a 0193     		str	r3, [sp, #4]	@ tmp165, temp
 184:src/tim.c     ****     GPIOA->AFR[0] = temp;
 731              		.loc 2 184 0
 732 007c 9023     		movs	r3, #144	@ tmp177,
 733 007e DB05     		lsls	r3, r3, #23	@ D.5253, tmp177,
 734 0080 019A     		ldr	r2, [sp, #4]	@ tmp168, temp
 735 0082 1A62     		str	r2, [r3, #32]	@ tmp168, _38->AFR
 185:src/tim.c     **** 
ARM GAS  /tmp/ccD5vHri.s 			page 33


 186:src/tim.c     ****     // temp = GPIOB->AFR[0];
 187:src/tim.c     ****     // temp &= 0xFFFFFF00;
 188:src/tim.c     ****     // temp |= 0x00000011;    //PB1 & PB0 -> AF1;
 189:src/tim.c     ****     // GPIOB->AFR[0] = temp;
 190:src/tim.c     **** 
 191:src/tim.c     ****     // Enable timer ver UDIS
 192:src/tim.c     ****     //TIM3->DIER |= TIM_DIER_UIE;
 193:src/tim.c     ****     TIM3->CR1 |= TIM_CR1_CEN;
 736              		.loc 2 193 0
 737 0084 074A     		ldr	r2, .L38+4	@ D.5251,
 738 0086 074B     		ldr	r3, .L38+4	@ D.5251,
 739 0088 1B88     		ldrh	r3, [r3]	@ tmp169, *_41
 740 008a 9BB2     		uxth	r3, r3	@ D.5252, tmp169
 741 008c 0121     		movs	r1, #1	@ tmp171,
 742 008e 0B43     		orrs	r3, r1	@ tmp170, tmp171
 743 0090 9BB2     		uxth	r3, r3	@ D.5252, tmp170
 744 0092 1380     		strh	r3, [r2]	@ tmp172, _40->CR1
 194:src/tim.c     **** 
 195:src/tim.c     ****     TIM3->CCR1 = 0;        
 745              		.loc 2 195 0
 746 0094 034B     		ldr	r3, .L38+4	@ D.5251,
 747 0096 0022     		movs	r2, #0	@ tmp173,
 748 0098 5A63     		str	r2, [r3, #52]	@ tmp173, _45->CCR1
 196:src/tim.c     **** }
 749              		.loc 2 196 0
 750 009a C046     		nop
 751 009c 02B0     		add	sp, sp, #8	@,,
 752              		@ sp needed	@
 753 009e 7047     		bx	lr
 754              	.L39:
 755              		.align	2
 756              	.L38:
 757 00a0 00100240 		.word	1073876992
 758 00a4 00040040 		.word	1073742848
 759 00a8 FFFFFFF0 		.word	-251658241
 760              		.cfi_endproc
 761              	.LFE28:
 762              		.size	TIM_3_Init, .-TIM_3_Init
 763              		.section	.text.TIM3_IRQHandler,"ax",%progbits
 764              		.align	2
 765              		.global	TIM3_IRQHandler
 766              		.code	16
 767              		.thumb_func
 768              		.type	TIM3_IRQHandler, %function
 769              	TIM3_IRQHandler:
 770              	.LFB29:
 197:src/tim.c     **** 
 198:src/tim.c     **** 
 199:src/tim.c     **** void TIM3_IRQHandler (void)	
 200:src/tim.c     **** {
 771              		.loc 2 200 0
 772              		.cfi_startproc
 201:src/tim.c     ****     //bajar flag
 202:src/tim.c     ****     if (TIM3->SR & 0x01)	//bajo el flag
 773              		.loc 2 202 0
 774 0000 054B     		ldr	r3, .L43	@ D.5254,
 775 0002 1B8A     		ldrh	r3, [r3, #16]	@ tmp116,
ARM GAS  /tmp/ccD5vHri.s 			page 34


 776 0004 9BB2     		uxth	r3, r3	@ D.5255, tmp116
 777 0006 1A00     		movs	r2, r3	@ D.5256, D.5255
 778 0008 0123     		movs	r3, #1	@ tmp117,
 779 000a 1340     		ands	r3, r2	@ D.5256, D.5256
 780 000c 02D0     		beq	.L42	@,
 203:src/tim.c     ****         TIM3->SR = 0x00;
 781              		.loc 2 203 0
 782 000e 024B     		ldr	r3, .L43	@ D.5254,
 783 0010 0022     		movs	r2, #0	@ tmp118,
 784 0012 1A82     		strh	r2, [r3, #16]	@ tmp119, _7->SR
 785              	.L42:
 204:src/tim.c     **** }
 786              		.loc 2 204 0
 787 0014 C046     		nop
 788              		@ sp needed	@
 789 0016 7047     		bx	lr
 790              	.L44:
 791              		.align	2
 792              	.L43:
 793 0018 00040040 		.word	1073742848
 794              		.cfi_endproc
 795              	.LFE29:
 796              		.size	TIM3_IRQHandler, .-TIM3_IRQHandler
 797              		.section	.text.TIM_6_Init,"ax",%progbits
 798              		.align	2
 799              		.global	TIM_6_Init
 800              		.code	16
 801              		.thumb_func
 802              		.type	TIM_6_Init, %function
 803              	TIM_6_Init:
 804              	.LFB30:
 205:src/tim.c     **** 
 206:src/tim.c     **** 
 207:src/tim.c     **** void TIM_6_Init (void)
 208:src/tim.c     **** {
 805              		.loc 2 208 0
 806              		.cfi_startproc
 209:src/tim.c     ****     if (!RCC_TIM6_CLK)
 807              		.loc 2 209 0
 808 0000 0A4B     		ldr	r3, .L47	@ D.5257,
 809 0002 DB69     		ldr	r3, [r3, #28]	@ D.5258, _2->APB1ENR
 810 0004 1022     		movs	r2, #16	@ tmp120,
 811 0006 1340     		ands	r3, r2	@ D.5258, tmp120
 812 0008 05D1     		bne	.L46	@,
 210:src/tim.c     ****         RCC_TIM6_CLK_ON;
 813              		.loc 2 210 0
 814 000a 084B     		ldr	r3, .L47	@ D.5257,
 815 000c 074A     		ldr	r2, .L47	@ D.5257,
 816 000e D269     		ldr	r2, [r2, #28]	@ D.5258, _7->APB1ENR
 817 0010 1021     		movs	r1, #16	@ tmp121,
 818 0012 0A43     		orrs	r2, r1	@ D.5258, tmp121
 819 0014 DA61     		str	r2, [r3, #28]	@ D.5258, _6->APB1ENR
 820              	.L46:
 211:src/tim.c     **** 
 212:src/tim.c     ****     //Configuracion del timer.
 213:src/tim.c     ****     TIM6->CR1 = 0x00;		//clk int / 1; upcounting
 821              		.loc 2 213 0
ARM GAS  /tmp/ccD5vHri.s 			page 35


 822 0016 064B     		ldr	r3, .L47+4	@ D.5259,
 823 0018 0022     		movs	r2, #0	@ tmp122,
 824 001a 1A80     		strh	r2, [r3]	@ tmp123, _11->CR1
 214:src/tim.c     ****     TIM6->PSC = 47;			//tick cada 1us
 825              		.loc 2 214 0
 826 001c 044B     		ldr	r3, .L47+4	@ D.5259,
 827 001e 2F22     		movs	r2, #47	@ tmp124,
 828 0020 1A85     		strh	r2, [r3, #40]	@ tmp125, _13->PSC
 215:src/tim.c     ****     TIM6->ARR = 0xFFFF;			//para que arranque
 829              		.loc 2 215 0
 830 0022 034B     		ldr	r3, .L47+4	@ D.5259,
 831 0024 034A     		ldr	r2, .L47+8	@ tmp126,
 832 0026 DA62     		str	r2, [r3, #44]	@ tmp126, _15->ARR
 216:src/tim.c     ****     //TIM6->CR1 |= TIM_CR1_CEN;
 217:src/tim.c     **** }
 833              		.loc 2 217 0
 834 0028 C046     		nop
 835              		@ sp needed	@
 836 002a 7047     		bx	lr
 837              	.L48:
 838              		.align	2
 839              	.L47:
 840 002c 00100240 		.word	1073876992
 841 0030 00100040 		.word	1073745920
 842 0034 FFFF0000 		.word	65535
 843              		.cfi_endproc
 844              	.LFE30:
 845              		.size	TIM_6_Init, .-TIM_6_Init
 846              		.section	.text.TIM6Enable,"ax",%progbits
 847              		.align	2
 848              		.global	TIM6Enable
 849              		.code	16
 850              		.thumb_func
 851              		.type	TIM6Enable, %function
 852              	TIM6Enable:
 853              	.LFB31:
 218:src/tim.c     **** 
 219:src/tim.c     **** void TIM6Enable (void)
 220:src/tim.c     **** {
 854              		.loc 2 220 0
 855              		.cfi_startproc
 221:src/tim.c     ****     TIM6->CR1 |= TIM_CR1_CEN;
 856              		.loc 2 221 0
 857 0000 044A     		ldr	r2, .L50	@ D.5260,
 858 0002 044B     		ldr	r3, .L50	@ D.5260,
 859 0004 1B88     		ldrh	r3, [r3]	@ tmp114, *_2
 860 0006 9BB2     		uxth	r3, r3	@ D.5261, tmp114
 861 0008 0121     		movs	r1, #1	@ tmp116,
 862 000a 0B43     		orrs	r3, r1	@ tmp115, tmp116
 863 000c 9BB2     		uxth	r3, r3	@ D.5261, tmp115
 864 000e 1380     		strh	r3, [r2]	@ tmp117, _1->CR1
 222:src/tim.c     **** }
 865              		.loc 2 222 0
 866 0010 C046     		nop
 867              		@ sp needed	@
 868 0012 7047     		bx	lr
 869              	.L51:
ARM GAS  /tmp/ccD5vHri.s 			page 36


 870              		.align	2
 871              	.L50:
 872 0014 00100040 		.word	1073745920
 873              		.cfi_endproc
 874              	.LFE31:
 875              		.size	TIM6Enable, .-TIM6Enable
 876              		.section	.text.TIM6Disable,"ax",%progbits
 877              		.align	2
 878              		.global	TIM6Disable
 879              		.code	16
 880              		.thumb_func
 881              		.type	TIM6Disable, %function
 882              	TIM6Disable:
 883              	.LFB32:
 223:src/tim.c     **** 
 224:src/tim.c     **** void TIM6Disable (void)
 225:src/tim.c     **** {
 884              		.loc 2 225 0
 885              		.cfi_startproc
 226:src/tim.c     ****     TIM6->CR1 &= ~TIM_CR1_CEN;
 886              		.loc 2 226 0
 887 0000 044A     		ldr	r2, .L53	@ D.5262,
 888 0002 044B     		ldr	r3, .L53	@ D.5262,
 889 0004 1B88     		ldrh	r3, [r3]	@ tmp114, *_2
 890 0006 9BB2     		uxth	r3, r3	@ D.5263, tmp114
 891 0008 0121     		movs	r1, #1	@ tmp116,
 892 000a 8B43     		bics	r3, r1	@ tmp115, tmp116
 893 000c 9BB2     		uxth	r3, r3	@ D.5263, tmp115
 894 000e 1380     		strh	r3, [r2]	@ tmp117, _1->CR1
 227:src/tim.c     **** }
 895              		.loc 2 227 0
 896 0010 C046     		nop
 897              		@ sp needed	@
 898 0012 7047     		bx	lr
 899              	.L54:
 900              		.align	2
 901              	.L53:
 902 0014 00100040 		.word	1073745920
 903              		.cfi_endproc
 904              	.LFE32:
 905              		.size	TIM6Disable, .-TIM6Disable
 906              		.section	.text.TIM14_IRQHandler,"ax",%progbits
 907              		.align	2
 908              		.global	TIM14_IRQHandler
 909              		.code	16
 910              		.thumb_func
 911              		.type	TIM14_IRQHandler, %function
 912              	TIM14_IRQHandler:
 913              	.LFB33:
 228:src/tim.c     **** 
 229:src/tim.c     **** void TIM14_IRQHandler (void)	//100uS
 230:src/tim.c     **** {
 914              		.loc 2 230 0
 915              		.cfi_startproc
 231:src/tim.c     **** 
 232:src/tim.c     ****     if (TIM14->SR & 0x01)
 916              		.loc 2 232 0
ARM GAS  /tmp/ccD5vHri.s 			page 37


 917 0000 054B     		ldr	r3, .L58	@ D.5264,
 918 0002 1B8A     		ldrh	r3, [r3, #16]	@ tmp116,
 919 0004 9BB2     		uxth	r3, r3	@ D.5265, tmp116
 920 0006 1A00     		movs	r2, r3	@ D.5266, D.5265
 921 0008 0123     		movs	r3, #1	@ tmp117,
 922 000a 1340     		ands	r3, r2	@ D.5266, D.5266
 923 000c 02D0     		beq	.L57	@,
 233:src/tim.c     ****         //bajar flag
 234:src/tim.c     ****         TIM14->SR = 0x00;
 924              		.loc 2 234 0
 925 000e 024B     		ldr	r3, .L58	@ D.5264,
 926 0010 0022     		movs	r2, #0	@ tmp118,
 927 0012 1A82     		strh	r2, [r3, #16]	@ tmp119, _7->SR
 928              	.L57:
 235:src/tim.c     **** }
 929              		.loc 2 235 0
 930 0014 C046     		nop
 931              		@ sp needed	@
 932 0016 7047     		bx	lr
 933              	.L59:
 934              		.align	2
 935              	.L58:
 936 0018 00200040 		.word	1073750016
 937              		.cfi_endproc
 938              	.LFE33:
 939              		.size	TIM14_IRQHandler, .-TIM14_IRQHandler
 940              		.section	.text.TIM_14_Init,"ax",%progbits
 941              		.align	2
 942              		.global	TIM_14_Init
 943              		.code	16
 944              		.thumb_func
 945              		.type	TIM_14_Init, %function
 946              	TIM_14_Init:
 947              	.LFB34:
 236:src/tim.c     **** 
 237:src/tim.c     **** void TIM_14_Init (void)
 238:src/tim.c     **** {
 948              		.loc 2 238 0
 949              		.cfi_startproc
 950 0000 82B0     		sub	sp, sp, #8	@,,
 951              	.LCFI12:
 952              		.cfi_def_cfa_offset 8
 239:src/tim.c     ****     unsigned int temp;
 240:src/tim.c     **** 
 241:src/tim.c     ****     if (!RCC_TIM14_CLK)
 953              		.loc 2 241 0
 954 0002 1D4B     		ldr	r3, .L62	@ D.5267,
 955 0004 DA69     		ldr	r2, [r3, #28]	@ D.5268, _2->APB1ENR
 956 0006 8023     		movs	r3, #128	@ tmp161,
 957 0008 5B00     		lsls	r3, r3, #1	@ tmp134, tmp161,
 958 000a 1340     		ands	r3, r2	@ D.5268, D.5268
 959 000c 06D1     		bne	.L61	@,
 242:src/tim.c     ****         RCC_TIM14_CLK_ON;
 960              		.loc 2 242 0
 961 000e 1A4B     		ldr	r3, .L62	@ D.5267,
 962 0010 194A     		ldr	r2, .L62	@ D.5267,
 963 0012 D269     		ldr	r2, [r2, #28]	@ D.5268, _7->APB1ENR
ARM GAS  /tmp/ccD5vHri.s 			page 38


 964 0014 8021     		movs	r1, #128	@ tmp160,
 965 0016 4900     		lsls	r1, r1, #1	@ tmp135, tmp160,
 966 0018 0A43     		orrs	r2, r1	@ D.5268, tmp135
 967 001a DA61     		str	r2, [r3, #28]	@ D.5268, _6->APB1ENR
 968              	.L61:
 243:src/tim.c     **** 
 244:src/tim.c     ****     TIM14->CCMR1 = 0x0060;            //CH1 output PWM mode 1
 969              		.loc 2 244 0
 970 001c 174B     		ldr	r3, .L62+4	@ D.5269,
 971 001e 6022     		movs	r2, #96	@ tmp136,
 972 0020 1A83     		strh	r2, [r3, #24]	@ tmp137, _11->CCMR1
 245:src/tim.c     ****     TIM14->CCER |= TIM_CCER_CC1E;    //CH1 enable on pin active high
 973              		.loc 2 245 0
 974 0022 164A     		ldr	r2, .L62+4	@ D.5269,
 975 0024 154B     		ldr	r3, .L62+4	@ D.5269,
 976 0026 1B8C     		ldrh	r3, [r3, #32]	@ tmp139,
 977 0028 9BB2     		uxth	r3, r3	@ D.5270, tmp139
 978 002a 0121     		movs	r1, #1	@ tmp141,
 979 002c 0B43     		orrs	r3, r1	@ tmp140, tmp141
 980 002e 9BB2     		uxth	r3, r3	@ D.5270, tmp140
 981 0030 1384     		strh	r3, [r2, #32]	@ tmp142, _13->CCER
 246:src/tim.c     ****     //TIM3->CCER |= TIM_CCER_CC2E | TIM_CCER_CC2P;    //CH2 enable on pin active high
 247:src/tim.c     ****     TIM14->PSC = 3;			//tick cada 83.33n
 982              		.loc 2 247 0
 983 0032 124B     		ldr	r3, .L62+4	@ D.5269,
 984 0034 0322     		movs	r2, #3	@ tmp143,
 985 0036 1A85     		strh	r2, [r3, #40]	@ tmp144, _18->PSC
 248:src/tim.c     ****     TIM14->ARR = 1023;    //freq 11.73KHz
 986              		.loc 2 248 0
 987 0038 104B     		ldr	r3, .L62+4	@ D.5269,
 988 003a 114A     		ldr	r2, .L62+8	@ tmp145,
 989 003c DA62     		str	r2, [r3, #44]	@ tmp145, _20->ARR
 249:src/tim.c     **** 
 250:src/tim.c     ****     //Configuracion del timer.
 251:src/tim.c     ****     TIM14->EGR |= 0x0001;
 990              		.loc 2 251 0
 991 003e 0F4A     		ldr	r2, .L62+4	@ D.5269,
 992 0040 0E4B     		ldr	r3, .L62+4	@ D.5269,
 993 0042 9B8A     		ldrh	r3, [r3, #20]	@ tmp147,
 994 0044 9BB2     		uxth	r3, r3	@ D.5270, tmp147
 995 0046 0121     		movs	r1, #1	@ tmp149,
 996 0048 0B43     		orrs	r3, r1	@ tmp148, tmp149
 997 004a 9BB2     		uxth	r3, r3	@ D.5270, tmp148
 998 004c 9382     		strh	r3, [r2, #20]	@ tmp150, _22->EGR
 252:src/tim.c     **** 
 253:src/tim.c     ****     //Configuracion Pin PB1
 254:src/tim.c     ****     temp = GPIOB->AFR[0];
 999              		.loc 2 254 0
 1000 004e 0D4B     		ldr	r3, .L62+12	@ D.5271,
 1001 0050 1B6A     		ldr	r3, [r3, #32]	@ tmp151, _27->AFR
 1002 0052 0193     		str	r3, [sp, #4]	@ tmp151, temp
 255:src/tim.c     ****     temp &= 0xFFFFFF0F;
 1003              		.loc 2 255 0
 1004 0054 019B     		ldr	r3, [sp, #4]	@ tmp153, temp
 1005 0056 F022     		movs	r2, #240	@ tmp154,
 1006 0058 9343     		bics	r3, r2	@ tmp152, tmp154
 1007 005a 0193     		str	r3, [sp, #4]	@ tmp152, temp
ARM GAS  /tmp/ccD5vHri.s 			page 39


 256:src/tim.c     ****     temp |= 0x00000000;	//PB1 -> AF0
 257:src/tim.c     ****     GPIOB->AFR[0] = temp;
 1008              		.loc 2 257 0
 1009 005c 094B     		ldr	r3, .L62+12	@ D.5271,
 1010 005e 019A     		ldr	r2, [sp, #4]	@ tmp155, temp
 1011 0060 1A62     		str	r2, [r3, #32]	@ tmp155, _31->AFR
 258:src/tim.c     **** 
 259:src/tim.c     ****     TIM14->CR1 |= TIM_CR1_CEN;
 1012              		.loc 2 259 0
 1013 0062 064A     		ldr	r2, .L62+4	@ D.5269,
 1014 0064 054B     		ldr	r3, .L62+4	@ D.5269,
 1015 0066 1B88     		ldrh	r3, [r3]	@ tmp156, *_34
 1016 0068 9BB2     		uxth	r3, r3	@ D.5270, tmp156
 1017 006a 0121     		movs	r1, #1	@ tmp158,
 1018 006c 0B43     		orrs	r3, r1	@ tmp157, tmp158
 1019 006e 9BB2     		uxth	r3, r3	@ D.5270, tmp157
 1020 0070 1380     		strh	r3, [r2]	@ tmp159, _33->CR1
 260:src/tim.c     **** 
 261:src/tim.c     **** }
 1021              		.loc 2 261 0
 1022 0072 C046     		nop
 1023 0074 02B0     		add	sp, sp, #8	@,,
 1024              		@ sp needed	@
 1025 0076 7047     		bx	lr
 1026              	.L63:
 1027              		.align	2
 1028              	.L62:
 1029 0078 00100240 		.word	1073876992
 1030 007c 00200040 		.word	1073750016
 1031 0080 FF030000 		.word	1023
 1032 0084 00040048 		.word	1207960576
 1033              		.cfi_endproc
 1034              	.LFE34:
 1035              		.size	TIM_14_Init, .-TIM_14_Init
 1036              		.section	.text.TIM16_IRQHandler,"ax",%progbits
 1037              		.align	2
 1038              		.global	TIM16_IRQHandler
 1039              		.code	16
 1040              		.thumb_func
 1041              		.type	TIM16_IRQHandler, %function
 1042              	TIM16_IRQHandler:
 1043              	.LFB35:
 262:src/tim.c     **** 
 263:src/tim.c     **** void TIM16_IRQHandler (void)	//es one shoot
 264:src/tim.c     **** {
 1044              		.loc 2 264 0
 1045              		.cfi_startproc
 265:src/tim.c     ****     //SendDMXPacket(PCKT_UPDATE);
 266:src/tim.c     **** 
 267:src/tim.c     ****     if (TIM16->SR & 0x01)
 1046              		.loc 2 267 0
 1047 0000 054B     		ldr	r3, .L67	@ D.5272,
 1048 0002 1B8A     		ldrh	r3, [r3, #16]	@ tmp116,
 1049 0004 9BB2     		uxth	r3, r3	@ D.5273, tmp116
 1050 0006 1A00     		movs	r2, r3	@ D.5274, D.5273
 1051 0008 0123     		movs	r3, #1	@ tmp117,
 1052 000a 1340     		ands	r3, r2	@ D.5274, D.5274
ARM GAS  /tmp/ccD5vHri.s 			page 40


 1053 000c 02D0     		beq	.L66	@,
 268:src/tim.c     ****         //bajar flag
 269:src/tim.c     ****         TIM16->SR = 0x00;
 1054              		.loc 2 269 0
 1055 000e 024B     		ldr	r3, .L67	@ D.5272,
 1056 0010 0022     		movs	r2, #0	@ tmp118,
 1057 0012 1A82     		strh	r2, [r3, #16]	@ tmp119, _7->SR
 1058              	.L66:
 270:src/tim.c     **** }
 1059              		.loc 2 270 0
 1060 0014 C046     		nop
 1061              		@ sp needed	@
 1062 0016 7047     		bx	lr
 1063              	.L68:
 1064              		.align	2
 1065              	.L67:
 1066 0018 00440140 		.word	1073824768
 1067              		.cfi_endproc
 1068              	.LFE35:
 1069              		.size	TIM16_IRQHandler, .-TIM16_IRQHandler
 1070              		.section	.text.TIM_16_Init,"ax",%progbits
 1071              		.align	2
 1072              		.global	TIM_16_Init
 1073              		.code	16
 1074              		.thumb_func
 1075              		.type	TIM_16_Init, %function
 1076              	TIM_16_Init:
 1077              	.LFB36:
 271:src/tim.c     **** 
 272:src/tim.c     **** void TIM_16_Init (void)
 273:src/tim.c     **** {
 1078              		.loc 2 273 0
 1079              		.cfi_startproc
 274:src/tim.c     ****     if (!RCC_TIM16_CLK)
 1080              		.loc 2 274 0
 1081 0000 0E4B     		ldr	r3, .L71	@ D.5275,
 1082 0002 9A69     		ldr	r2, [r3, #24]	@ D.5276, _2->APB2ENR
 1083 0004 8023     		movs	r3, #128	@ tmp133,
 1084 0006 9B02     		lsls	r3, r3, #10	@ tmp122, tmp133,
 1085 0008 1340     		ands	r3, r2	@ D.5276, D.5276
 1086 000a 06D1     		bne	.L70	@,
 275:src/tim.c     ****         RCC_TIM16_CLK_ON;
 1087              		.loc 2 275 0
 1088 000c 0B4B     		ldr	r3, .L71	@ D.5275,
 1089 000e 0B4A     		ldr	r2, .L71	@ D.5275,
 1090 0010 9269     		ldr	r2, [r2, #24]	@ D.5276, _7->APB2ENR
 1091 0012 8021     		movs	r1, #128	@ tmp132,
 1092 0014 8902     		lsls	r1, r1, #10	@ tmp123, tmp132,
 1093 0016 0A43     		orrs	r2, r1	@ D.5276, tmp123
 1094 0018 9A61     		str	r2, [r3, #24]	@ D.5276, _6->APB2ENR
 1095              	.L70:
 276:src/tim.c     **** 
 277:src/tim.c     ****     //Configuracion del timer.
 278:src/tim.c     ****     TIM16->CR1 = 0x00;		//clk int / 1; upcounting; uev
 1096              		.loc 2 278 0
 1097 001a 094B     		ldr	r3, .L71+4	@ D.5277,
 1098 001c 0022     		movs	r2, #0	@ tmp124,
ARM GAS  /tmp/ccD5vHri.s 			page 41


 1099 001e 1A80     		strh	r2, [r3]	@ tmp125, _11->CR1
 279:src/tim.c     ****     TIM16->ARR = 0xFFFF;
 1100              		.loc 2 279 0
 1101 0020 074B     		ldr	r3, .L71+4	@ D.5277,
 1102 0022 084A     		ldr	r2, .L71+8	@ tmp126,
 1103 0024 DA62     		str	r2, [r3, #44]	@ tmp126, _13->ARR
 280:src/tim.c     ****     TIM16->CNT = 0;
 1104              		.loc 2 280 0
 1105 0026 064B     		ldr	r3, .L71+4	@ D.5277,
 1106 0028 0022     		movs	r2, #0	@ tmp127,
 1107 002a 5A62     		str	r2, [r3, #36]	@ tmp127, _15->CNT
 281:src/tim.c     ****     TIM16->PSC = 47;			//tick 1us
 1108              		.loc 2 281 0
 1109 002c 044B     		ldr	r3, .L71+4	@ D.5277,
 1110 002e 2F22     		movs	r2, #47	@ tmp128,
 1111 0030 1A85     		strh	r2, [r3, #40]	@ tmp129, _17->PSC
 282:src/tim.c     ****     TIM16->EGR = TIM_EGR_UG;
 1112              		.loc 2 282 0
 1113 0032 034B     		ldr	r3, .L71+4	@ D.5277,
 1114 0034 0122     		movs	r2, #1	@ tmp130,
 1115 0036 9A82     		strh	r2, [r3, #20]	@ tmp131, _19->EGR
 283:src/tim.c     **** 
 284:src/tim.c     **** }
 1116              		.loc 2 284 0
 1117 0038 C046     		nop
 1118              		@ sp needed	@
 1119 003a 7047     		bx	lr
 1120              	.L72:
 1121              		.align	2
 1122              	.L71:
 1123 003c 00100240 		.word	1073876992
 1124 0040 00440140 		.word	1073824768
 1125 0044 FFFF0000 		.word	65535
 1126              		.cfi_endproc
 1127              	.LFE36:
 1128              		.size	TIM_16_Init, .-TIM_16_Init
 1129              		.section	.text.OneShootTIM16,"ax",%progbits
 1130              		.align	2
 1131              		.global	OneShootTIM16
 1132              		.code	16
 1133              		.thumb_func
 1134              		.type	OneShootTIM16, %function
 1135              	OneShootTIM16:
 1136              	.LFB37:
 285:src/tim.c     **** 
 286:src/tim.c     **** 
 287:src/tim.c     **** void OneShootTIM16 (unsigned short a)
 288:src/tim.c     **** {
 1137              		.loc 2 288 0
 1138              		.cfi_startproc
 1139 0000 82B0     		sub	sp, sp, #8	@,,
 1140              	.LCFI13:
 1141              		.cfi_def_cfa_offset 8
 1142 0002 0200     		movs	r2, r0	@ tmp116, a
 1143 0004 6B46     		mov	r3, sp	@ tmp124,
 1144 0006 0633     		adds	r3, r3, #6	@ tmp117,
 1145 0008 1A80     		strh	r2, [r3]	@ tmp118, a
ARM GAS  /tmp/ccD5vHri.s 			page 42


 289:src/tim.c     ****     TIM16->ARR = a;
 1146              		.loc 2 289 0
 1147 000a 084B     		ldr	r3, .L74	@ D.5278,
 1148 000c 6A46     		mov	r2, sp	@ tmp125,
 1149 000e 0632     		adds	r2, r2, #6	@ tmp119,
 1150 0010 1288     		ldrh	r2, [r2]	@ D.5279, a
 1151 0012 DA62     		str	r2, [r3, #44]	@ D.5279, _1->ARR
 290:src/tim.c     ****     TIM16->CR1 |= TIM_CR1_CEN;
 1152              		.loc 2 290 0
 1153 0014 054A     		ldr	r2, .L74	@ D.5278,
 1154 0016 054B     		ldr	r3, .L74	@ D.5278,
 1155 0018 1B88     		ldrh	r3, [r3]	@ tmp120, *_7
 1156 001a 9BB2     		uxth	r3, r3	@ D.5280, tmp120
 1157 001c 0121     		movs	r1, #1	@ tmp122,
 1158 001e 0B43     		orrs	r3, r1	@ tmp121, tmp122
 1159 0020 9BB2     		uxth	r3, r3	@ D.5280, tmp121
 1160 0022 1380     		strh	r3, [r2]	@ tmp123, _6->CR1
 291:src/tim.c     **** }
 1161              		.loc 2 291 0
 1162 0024 C046     		nop
 1163 0026 02B0     		add	sp, sp, #8	@,,
 1164              		@ sp needed	@
 1165 0028 7047     		bx	lr
 1166              	.L75:
 1167 002a C046     		.align	2
 1168              	.L74:
 1169 002c 00440140 		.word	1073824768
 1170              		.cfi_endproc
 1171              	.LFE37:
 1172              		.size	OneShootTIM16, .-OneShootTIM16
 1173              		.section	.text.TIM16Enable,"ax",%progbits
 1174              		.align	2
 1175              		.global	TIM16Enable
 1176              		.code	16
 1177              		.thumb_func
 1178              		.type	TIM16Enable, %function
 1179              	TIM16Enable:
 1180              	.LFB38:
 292:src/tim.c     **** 
 293:src/tim.c     **** 
 294:src/tim.c     **** void TIM16Enable (void)
 295:src/tim.c     **** {
 1181              		.loc 2 295 0
 1182              		.cfi_startproc
 296:src/tim.c     ****     TIM16->CR1 |= TIM_CR1_CEN;
 1183              		.loc 2 296 0
 1184 0000 044A     		ldr	r2, .L77	@ D.5281,
 1185 0002 044B     		ldr	r3, .L77	@ D.5281,
 1186 0004 1B88     		ldrh	r3, [r3]	@ tmp114, *_2
 1187 0006 9BB2     		uxth	r3, r3	@ D.5282, tmp114
 1188 0008 0121     		movs	r1, #1	@ tmp116,
 1189 000a 0B43     		orrs	r3, r1	@ tmp115, tmp116
 1190 000c 9BB2     		uxth	r3, r3	@ D.5282, tmp115
 1191 000e 1380     		strh	r3, [r2]	@ tmp117, _1->CR1
 297:src/tim.c     **** }
 1192              		.loc 2 297 0
 1193 0010 C046     		nop
ARM GAS  /tmp/ccD5vHri.s 			page 43


 1194              		@ sp needed	@
 1195 0012 7047     		bx	lr
 1196              	.L78:
 1197              		.align	2
 1198              	.L77:
 1199 0014 00440140 		.word	1073824768
 1200              		.cfi_endproc
 1201              	.LFE38:
 1202              		.size	TIM16Enable, .-TIM16Enable
 1203              		.section	.text.TIM16Disable,"ax",%progbits
 1204              		.align	2
 1205              		.global	TIM16Disable
 1206              		.code	16
 1207              		.thumb_func
 1208              		.type	TIM16Disable, %function
 1209              	TIM16Disable:
 1210              	.LFB39:
 298:src/tim.c     **** 
 299:src/tim.c     **** 
 300:src/tim.c     **** void TIM16Disable (void)
 301:src/tim.c     **** {
 1211              		.loc 2 301 0
 1212              		.cfi_startproc
 302:src/tim.c     ****     TIM16->CR1 &= ~TIM_CR1_CEN;
 1213              		.loc 2 302 0
 1214 0000 044A     		ldr	r2, .L80	@ D.5283,
 1215 0002 044B     		ldr	r3, .L80	@ D.5283,
 1216 0004 1B88     		ldrh	r3, [r3]	@ tmp114, *_2
 1217 0006 9BB2     		uxth	r3, r3	@ D.5284, tmp114
 1218 0008 0121     		movs	r1, #1	@ tmp116,
 1219 000a 8B43     		bics	r3, r1	@ tmp115, tmp116
 1220 000c 9BB2     		uxth	r3, r3	@ D.5284, tmp115
 1221 000e 1380     		strh	r3, [r2]	@ tmp117, _1->CR1
 303:src/tim.c     **** }
 1222              		.loc 2 303 0
 1223 0010 C046     		nop
 1224              		@ sp needed	@
 1225 0012 7047     		bx	lr
 1226              	.L81:
 1227              		.align	2
 1228              	.L80:
 1229 0014 00440140 		.word	1073824768
 1230              		.cfi_endproc
 1231              	.LFE39:
 1232              		.size	TIM16Disable, .-TIM16Disable
 1233              		.section	.text.TIM_17_Init,"ax",%progbits
 1234              		.align	2
 1235              		.global	TIM_17_Init
 1236              		.code	16
 1237              		.thumb_func
 1238              		.type	TIM_17_Init, %function
 1239              	TIM_17_Init:
 1240              	.LFB40:
 304:src/tim.c     **** 
 305:src/tim.c     **** 
 306:src/tim.c     **** void TIM_17_Init (void)
 307:src/tim.c     **** {
ARM GAS  /tmp/ccD5vHri.s 			page 44


 1241              		.loc 2 307 0
 1242              		.cfi_startproc
 1243 0000 10B5     		push	{r4, lr}	@
 1244              	.LCFI14:
 1245              		.cfi_def_cfa_offset 8
 1246              		.cfi_offset 4, -8
 1247              		.cfi_offset 14, -4
 308:src/tim.c     ****     if (!RCC_TIM17_CLK)
 1248              		.loc 2 308 0
 1249 0002 174B     		ldr	r3, .L84	@ D.5285,
 1250 0004 9A69     		ldr	r2, [r3, #24]	@ D.5286, _2->APB2ENR
 1251 0006 8023     		movs	r3, #128	@ tmp144,
 1252 0008 DB02     		lsls	r3, r3, #11	@ tmp128, tmp144,
 1253 000a 1340     		ands	r3, r2	@ D.5286, D.5286
 1254 000c 06D1     		bne	.L83	@,
 309:src/tim.c     ****         RCC_TIM17_CLK_ON;
 1255              		.loc 2 309 0
 1256 000e 144B     		ldr	r3, .L84	@ D.5285,
 1257 0010 134A     		ldr	r2, .L84	@ D.5285,
 1258 0012 9269     		ldr	r2, [r2, #24]	@ D.5286, _7->APB2ENR
 1259 0014 8021     		movs	r1, #128	@ tmp143,
 1260 0016 C902     		lsls	r1, r1, #11	@ tmp129, tmp143,
 1261 0018 0A43     		orrs	r2, r1	@ D.5286, tmp129
 1262 001a 9A61     		str	r2, [r3, #24]	@ D.5286, _6->APB2ENR
 1263              	.L83:
 310:src/tim.c     **** 
 311:src/tim.c     ****     //Configuracion del timer.
 312:src/tim.c     ****     TIM17->ARR = 0xFFFF;
 1264              		.loc 2 312 0
 1265 001c 114B     		ldr	r3, .L84+4	@ D.5287,
 1266 001e 124A     		ldr	r2, .L84+8	@ tmp130,
 1267 0020 DA62     		str	r2, [r3, #44]	@ tmp130, _11->ARR
 313:src/tim.c     ****     TIM17->CNT = 0;
 1268              		.loc 2 313 0
 1269 0022 104B     		ldr	r3, .L84+4	@ D.5287,
 1270 0024 0022     		movs	r2, #0	@ tmp131,
 1271 0026 5A62     		str	r2, [r3, #36]	@ tmp131, _13->CNT
 314:src/tim.c     ****     TIM17->PSC = 47;
 1272              		.loc 2 314 0
 1273 0028 0E4B     		ldr	r3, .L84+4	@ D.5287,
 1274 002a 2F22     		movs	r2, #47	@ tmp132,
 1275 002c 1A85     		strh	r2, [r3, #40]	@ tmp133, _15->PSC
 315:src/tim.c     **** 
 316:src/tim.c     ****     // Enable timer interrupt ver UDIS
 317:src/tim.c     ****     TIM17->DIER |= TIM_DIER_UIE;
 1276              		.loc 2 317 0
 1277 002e 0D4A     		ldr	r2, .L84+4	@ D.5287,
 1278 0030 0C4B     		ldr	r3, .L84+4	@ D.5287,
 1279 0032 9B89     		ldrh	r3, [r3, #12]	@ tmp135,
 1280 0034 9BB2     		uxth	r3, r3	@ D.5288, tmp135
 1281 0036 0121     		movs	r1, #1	@ tmp137,
 1282 0038 0B43     		orrs	r3, r1	@ tmp136, tmp137
 1283 003a 9BB2     		uxth	r3, r3	@ D.5288, tmp136
 1284 003c 9381     		strh	r3, [r2, #12]	@ tmp138, _17->DIER
 318:src/tim.c     ****     TIM17->CR1 |= TIM_CR1_URS;	//solo int cuando hay overflow y one shot
 1285              		.loc 2 318 0
 1286 003e 094A     		ldr	r2, .L84+4	@ D.5287,
ARM GAS  /tmp/ccD5vHri.s 			page 45


 1287 0040 084B     		ldr	r3, .L84+4	@ D.5287,
 1288 0042 1B88     		ldrh	r3, [r3]	@ tmp139, *_23
 1289 0044 9BB2     		uxth	r3, r3	@ D.5288, tmp139
 1290 0046 0421     		movs	r1, #4	@ tmp141,
 1291 0048 0B43     		orrs	r3, r1	@ tmp140, tmp141
 1292 004a 9BB2     		uxth	r3, r3	@ D.5288, tmp140
 1293 004c 1380     		strh	r3, [r2]	@ tmp142, _22->CR1
 319:src/tim.c     **** 
 320:src/tim.c     ****     NVIC_EnableIRQ(TIM17_IRQn);
 1294              		.loc 2 320 0
 1295 004e 1620     		movs	r0, #22	@,
 1296 0050 FFF7FEFF 		bl	NVIC_EnableIRQ	@
 321:src/tim.c     ****     NVIC_SetPriority(TIM17_IRQn, 8);
 1297              		.loc 2 321 0
 1298 0054 0821     		movs	r1, #8	@,
 1299 0056 1620     		movs	r0, #22	@,
 1300 0058 FFF7FEFF 		bl	NVIC_SetPriority	@
 322:src/tim.c     **** }
 1301              		.loc 2 322 0
 1302 005c C046     		nop
 1303              		@ sp needed	@
 1304 005e 10BD     		pop	{r4, pc}
 1305              	.L85:
 1306              		.align	2
 1307              	.L84:
 1308 0060 00100240 		.word	1073876992
 1309 0064 00480140 		.word	1073825792
 1310 0068 FFFF0000 		.word	65535
 1311              		.cfi_endproc
 1312              	.LFE40:
 1313              		.size	TIM_17_Init, .-TIM_17_Init
 1314              		.section	.text.TIM17_IRQHandler,"ax",%progbits
 1315              		.align	2
 1316              		.global	TIM17_IRQHandler
 1317              		.code	16
 1318              		.thumb_func
 1319              		.type	TIM17_IRQHandler, %function
 1320              	TIM17_IRQHandler:
 1321              	.LFB41:
 323:src/tim.c     **** 
 324:src/tim.c     **** 
 325:src/tim.c     **** void TIM17_IRQHandler (void)
 326:src/tim.c     **** {
 1322              		.loc 2 326 0
 1323              		.cfi_startproc
 327:src/tim.c     ****     if (TIM17->SR & 0x01)
 1324              		.loc 2 327 0
 1325 0000 054B     		ldr	r3, .L89	@ D.5289,
 1326 0002 1B8A     		ldrh	r3, [r3, #16]	@ tmp116,
 1327 0004 9BB2     		uxth	r3, r3	@ D.5290, tmp116
 1328 0006 1A00     		movs	r2, r3	@ D.5291, D.5290
 1329 0008 0123     		movs	r3, #1	@ tmp117,
 1330 000a 1340     		ands	r3, r2	@ D.5291, D.5291
 1331 000c 02D0     		beq	.L88	@,
 328:src/tim.c     ****     {
 329:src/tim.c     ****         // SYNC_Zero_Crossing_Handler();
 330:src/tim.c     ****         TIM17->SR = 0x00;    //flag down
ARM GAS  /tmp/ccD5vHri.s 			page 46


 1332              		.loc 2 330 0
 1333 000e 024B     		ldr	r3, .L89	@ D.5289,
 1334 0010 0022     		movs	r2, #0	@ tmp118,
 1335 0012 1A82     		strh	r2, [r3, #16]	@ tmp119, _7->SR
 1336              	.L88:
 331:src/tim.c     ****     }    
 332:src/tim.c     **** }
 1337              		.loc 2 332 0
 1338 0014 C046     		nop
 1339              		@ sp needed	@
 1340 0016 7047     		bx	lr
 1341              	.L90:
 1342              		.align	2
 1343              	.L89:
 1344 0018 00480140 		.word	1073825792
 1345              		.cfi_endproc
 1346              	.LFE41:
 1347              		.size	TIM17_IRQHandler, .-TIM17_IRQHandler
 1348              		.section	.text.TIM17Enable,"ax",%progbits
 1349              		.align	2
 1350              		.global	TIM17Enable
 1351              		.code	16
 1352              		.thumb_func
 1353              		.type	TIM17Enable, %function
 1354              	TIM17Enable:
 1355              	.LFB42:
 333:src/tim.c     **** 
 334:src/tim.c     **** 
 335:src/tim.c     **** void TIM17Enable (void)
 336:src/tim.c     **** {
 1356              		.loc 2 336 0
 1357              		.cfi_startproc
 337:src/tim.c     ****     TIM17->CR1 |= TIM_CR1_CEN;
 1358              		.loc 2 337 0
 1359 0000 044A     		ldr	r2, .L92	@ D.5292,
 1360 0002 044B     		ldr	r3, .L92	@ D.5292,
 1361 0004 1B88     		ldrh	r3, [r3]	@ tmp114, *_2
 1362 0006 9BB2     		uxth	r3, r3	@ D.5293, tmp114
 1363 0008 0121     		movs	r1, #1	@ tmp116,
 1364 000a 0B43     		orrs	r3, r1	@ tmp115, tmp116
 1365 000c 9BB2     		uxth	r3, r3	@ D.5293, tmp115
 1366 000e 1380     		strh	r3, [r2]	@ tmp117, _1->CR1
 338:src/tim.c     **** }
 1367              		.loc 2 338 0
 1368 0010 C046     		nop
 1369              		@ sp needed	@
 1370 0012 7047     		bx	lr
 1371              	.L93:
 1372              		.align	2
 1373              	.L92:
 1374 0014 00480140 		.word	1073825792
 1375              		.cfi_endproc
 1376              	.LFE42:
 1377              		.size	TIM17Enable, .-TIM17Enable
 1378              		.section	.text.TIM17Disable,"ax",%progbits
 1379              		.align	2
 1380              		.global	TIM17Disable
ARM GAS  /tmp/ccD5vHri.s 			page 47


 1381              		.code	16
 1382              		.thumb_func
 1383              		.type	TIM17Disable, %function
 1384              	TIM17Disable:
 1385              	.LFB43:
 339:src/tim.c     **** 
 340:src/tim.c     **** 
 341:src/tim.c     **** void TIM17Disable (void)
 342:src/tim.c     **** {
 1386              		.loc 2 342 0
 1387              		.cfi_startproc
 343:src/tim.c     ****     TIM17->CR1 &= ~TIM_CR1_CEN;
 1388              		.loc 2 343 0
 1389 0000 044A     		ldr	r2, .L95	@ D.5294,
 1390 0002 044B     		ldr	r3, .L95	@ D.5294,
 1391 0004 1B88     		ldrh	r3, [r3]	@ tmp114, *_2
 1392 0006 9BB2     		uxth	r3, r3	@ D.5295, tmp114
 1393 0008 0121     		movs	r1, #1	@ tmp116,
 1394 000a 8B43     		bics	r3, r1	@ tmp115, tmp116
 1395 000c 9BB2     		uxth	r3, r3	@ D.5295, tmp115
 1396 000e 1380     		strh	r3, [r2]	@ tmp117, _1->CR1
 344:src/tim.c     **** }
 1397              		.loc 2 344 0
 1398 0010 C046     		nop
 1399              		@ sp needed	@
 1400 0012 7047     		bx	lr
 1401              	.L96:
 1402              		.align	2
 1403              	.L95:
 1404 0014 00480140 		.word	1073825792
 1405              		.cfi_endproc
 1406              	.LFE43:
 1407              		.size	TIM17Disable, .-TIM17Disable
 1408              		.text
 1409              	.Letext0:
 1410              		.file 3 "./cmsis_boot/stm32f0xx.h"
 1411              		.file 4 "/usr/local/sbin/gcc-arm-none-eabi-5_2-2015q4/arm-none-eabi/include/machine/_default_types
 1412              		.file 5 "/usr/local/sbin/gcc-arm-none-eabi-5_2-2015q4/arm-none-eabi/include/sys/_stdint.h"